(dp0
Vpsk3005
p1
VPraveen Shamlal Kithani
p2
sVAladdin
p3
VTarique Siddiqui
p4
sVrohit499
p5
VRohit Srivastava
p6
sV@tul
p7
VAtul Choudhari
p8
sVVinayTakawale007
p9
VVinay Takawale
p10
sVpp
p11
Vpp
p12
sVKabi.anant
p13
VAnanta Prasad Kabi
p14
sVPrecision
p15
VChirag kankariya
p16
sVAarti_M
p17
VAarti Makhijani
p18
sVChetan sharma
p19
VChetan Sharma
p20
sVSagar
p21
VSagar Deshmukh 
p22
sVPG
p23
VPrashant Gupta
p24
sVviren
p25
VVirendrasinh Gohil
p26
sVGajanan
p27
VGajanan Lokhandre
p28
sVVarun@ResearchIT
p29
VVarun samant
p30
sVKishi
p31
VSanyam Shrivastava
p32
sVthegodfather
p33
Vthe_godfather
p34
sVSupport3
p35
Vsachins
p36
sVSupport2
p37
VSupport2
p38
sVNikhilesh
p39
VNikhilesh
p40
sVAdminPP
p41
VAdmin User
p42
sVUdaykiran
p43
VKiran Kumar Pabboji
p44
sVnitrek1921
p45
Vnitesh singh
p46
s.