(dp0
V
p1
VGirish 
p2
sV0x6ba33fD3cC075D71C48597dF69278FFa3597a4F5
p3
Vsuperman
p4
sV0x3C1C5a4Fe2a20B0702426f3580A01F8212b94Ae1
p5
VRandom7Killer
p6
sV0x87F65dE25f8193Df60c7AC39B9e4b8e3431f42CC
p7
VHimanshu Hansaria
p8
sV0x20e7DB048A799b34eDE83A8431033AdCF5eF1c6b
p9
VRailSplitter
p10
sV0x93EA5285074924ce6A1aC16036a7B6DD75F81947
p11
Vthegodfather
p12
sV0xaC53520Ffe2072398001AE05d7e7C9f850280a70
p13
Vanurag singh
p14
sV0xaE79A0D2D08c685028F7645eA61015bC108D869e
p15
V@Garib_Insaan
p16
sV0x0C00959b7Fac6af348c471951EfAE148Bc182E70
p17
VShunya
p18
sV0x92677df12afAC77CF0ac2E1879E81038bd37C22F
p19
VNeeraj Kumar
p20
sV0x7Ce21fd6242CD7E5Ffc23b2E3cdd9931Bf7f4738
p21
VSagar 
p22
sV0xf1bcf80709A8efBBc6134d3055Ae2cB778fA7700
p23
VPranshu Topal
p24
sV0x77C61D5Df8759cef69DB539f88BD014ab2C10440
p25
VRupeshKirmirwar
p26
sV0xcfBDd39564799834a8AA02c6A90E2631A432CA66
p27
VKrishna Bellary
p28
sV0xa6307a8B61C4fA88077E369Ad0e2085731C9c59D
p29
VGajanan Lokhande
p30
sV0x866C9eCf5d2cbf8D897B2944eEAFAbBceA50A668
p31
VSupport2 sb
p32
sV0xC8fdB5370311Aa266A4Cd5253Bf3100fdb5Ec873
p33
VMOHD AQUIB
p34
sV0x720D0c0F3Fe0803E69832ae12CdF424212D63B42
p35
VAtul Sharma
p36
sV0x19FBBD48AF979f2De242E488a84257D29bD15cBF
p37
VPramod
p38
sV0x81c08AfCe9c26A8E97acEF91969610d07a03d527
p39
VSorcerers Reloaded
p40
sV0x46A224e7A96025FE6aF457B18D1D240FdE47258b
p41
VChetan sharma
p42
sV0x7CE50118BBc4208df6c6127bDe4560e44C04bf59
p43
VVirendrasinh Gohil 
p44
sV0x28C8870D00613fA4891786f7b7aBE0A6554fDc16
p45
VTanay Mathur
p46
sV0x82361Ac015A000066C051B1A4f3407C8e946918a
p47
VAarti M
p48
sV0xA7939BfB7f6eB24400089B4E15fFA41cBAc39E00
p49
VPrajwala Srivatsa
p50
sV0xF02739da192006d4F6b089fA839262938d4337ac
p51
VPrashant Gupta
p52
sV0x7B1bd3b475ACA7E38CCa1615a7e631c3D36Be838
p53
VAksS
p54
sV0xc5d52c225AF6779994A324126967763Dc9E1c1A3
p55
VTushar Patil
p56
sV0x8917A4FF8F99470B9414E49735E194Fb6884da22
p57
VAkshay Sukhija
p58
sV0x7880C5d71ffb66E27a9898bBA510F53458503C4d
p59
VChirag Kankariya
p60
sV0xa442BADE1Fc599c28C83e0f73Acb51e9DeBAf37F
p61
VJyoti singh
p62
sV0x2841d0429E7D8a2a2Cfb47f06A4c9E3EfceD01b2
p63
VChacha
p64
sV0x51859A271e9ff4D54fC39C17693F1727627F0865
p65
VAlphaGoShunya
p66
sV0x5D9fD8620B95A51c33868f408Db70D6BC39CFEC7
p67
VGirish
p68
sV0x575c22123D9845A222f23E988d45A485AaA25ecf
p69
VPraveen Shamlal Kithani
p70
sV0xAC924217A6e7a09E9B335068B64Fc441819A192c
p71
VKunal Maheshwari
p72
sV0x09abDeB06799bf6a66121de92e441b2643E6F72E
p73
VRohit Srivastava
p74
sV0x20A249c969cE74C8F9A3Fe1B8192fC7428f7CAc6
p75
VShwet Ketu Haritas
p76
sV0x4688cDaD56684CAbE81ee6A995656E21Bc6F4c2d
p77
VPrasun Pande
p78
sV0xC6eC9aa1935c31c98273F6366fe7B49511bC5CB9
p79
VPrachi
p80
sV0x0Ea7DaBBD4CB4557b87AFbC5170047881318049F
p81
VShubham Thakur
p82
sV0x7103209f00BDe90DFabbe17b13Ac0836554326b1
p83
VXYZ Prediction
p84
sV0xd43f53143EE0f169B3Ead8cdA588B0583F13C548
p85
VRavi Sharma
p86
sV0x164732a3fcF8b36dAD8C6bfD11918c56b1A54c3b
p87
VKiran
p88
sV0x7F281966076Fd1404c07C62f96C9983589eEDF4D
p89
VSneh Mujoo
p90
sV0x21b5357d0bF687843aDeEA7e80C6477053c46c17
p91
VRandom7
p92
sV0xaDF23BcdF9cb4f04111fB8D8583500644fD5f51c
p93
Vipljunky
p94
sV0x2cc704077Ef0DfaED6b5C0af65D44558d26B25e1
p95
VDipendra
p96
sV0x7e1Cbee4b0300399BacC1ADeA2D84d4A039f14bc
p97
Vjkgb
p98
sV0x0b8b6fE573aF299684a0990f90Da330F683A7C61
p99
VMSK
p100
sV0x1F33D43e6D5197Fd63dDC6770C227B34F3602496
p101
Vak2605
p102
sV0x80d2c90B8C31F6eEEA31adEe76D72B188F96D061
p103
VNiraj Diwan
p104
sV0xD5cC71CB870747A6AB4dEF661D5CCa7bbd1404a3
p105
VKunalG
p106
sV0xb01b05b3408070dA647fBB606E4C71B6D123a06d
p107
VBhalchandra Joshi
p108
sV0x314Da668b2e2618C7590248C3FE36D695925b2c4
p109
VAdmin_PP
p110
sV0x75D1E6656B36bB4f4136176BC5e6e0A26BDF5fbF
p111
VKiran Kumar Pabboji 
p112
sV0x8C5B4d31920435B6d0b9C49893675b920970ff60
p113
VMohit Gupta
p114
sV0xB8Cbc5f706Ca4eFbd0eC52FF6a3e89d7b1DCEcCB
p115
VAnanta Prasad Kabi
p116
sV0x044c3f4F5a30249d91384047b70B9Bb99E43B093
p117
VMangesh
p118
sV0x48191c9860d21528b24188b2d0415b3D0145Fc1E
p119
VAnurag
p120
sV0x2e37E44e598A7E34F94C4A6E36160956293812e6
p121
VChaitanya
p122
sV0xCDc63E739aCD3b483b3e7cA1A70f794fB86BdAaD
p123
VMatrix
p124
sV0x478E12D50970071047814aeEA70a8402968822EA
p125
Vsanro1
p126
sV0xF75d468AC8833b6c8AA1B3138C0A79F1F2968f09
p127
VAvik Chakraborty
p128
sV0x9e93197e6f19c5e0654d3243c15e844f6a66d742
p129
Vsachins
p130
sV0xdC757B4b5f6E4A6f9110BeF60D6b1dCEFcee1C58
p131
VTanvirs 
p132
sV0xd8C3F67F3F62baD979afbF2Bcc8dce3d7F305bC7
p133
VSarang Chauhan 
p134
sV0x727A6f38be1A5a532De9c1839BcFBa719F4eA231
p135
VShirish
p136
sV0x12883267298A5666e68e1379Fb99DEc591b2C700
p137
VKAMSY
p138
sV0x57d05FED913088194460894Dcc4Cb31F0A5671c0
p139
VNikhilesh
p140
sV0x698DbF061d643c5d103f4f2E82F7d314777D432f
p141
VVivek Gorwadkar
p142
sV0x377992166266E2DdA97CBd3f46B9952A34aCEce4
p143
VAkshata Raikar
p144
sV0x4687193d7C4def8A36796795D7Ab865366bC0ED5
p145
VAdmin_SachinS
p146
sV0xb4a0Fb49de160Eb8BE526c0a0bC64363cf9f6CB0
p147
VGame Swingers
p148
sV0x620500fa7efe7FF3a67DD6ffcE73d0f82d19f056
p149
VIPLKiAAG
p150
sV0x01e491E38A14Ebd7E6419F5581762CBEc8260F52
p151
VLalit Mohnani
p152
sV0x107ab29EF6432b2FF5a22FFC9dBF832305dD2Ce3
p153
VProthit Majumdar 
p154
sV0x94Fb1f84f486FA517A07e46cc8977cd37f33F493
p155
VWillSmith
p156
sV0xcC80f86422D9ee4082d1Dcec7014722c493315f8
p157
Vsiddharth
p158
sV0xa603D25D9C2318BAAB38621BD66227dc142c84BC
p159
VSuvit
p160
sV0x0057B9A188Aaf10FB2004D85a883090Db7B11B22
p161
VRamdon007++
p162
sV0x9b4db6D7eB0a4fAdE4cD9b1059A7f3780B7aF9eB
p163
VArpit saxena
p164
sV0x3eE2Ccd95558dD586489972f9b1Ba06D8eE083b5
p165
VPappu
p166
sV0xa75A66f0B029979189F75E0D2fa4B51704Fcaf93
p167
VKaram
p168
sV0xc5B197716f8bC0840D7D7034EF577b643A5Ee436
p169
VPratyush
p170
sV0x328A8868f05139bb93e869Cb0F345e1D5B344f58
p171
VIksha
p172
sV0xBaA31ae408108A615bEBBDD414AA39E0d1634395
p173
VVarun samant
p174
sV0xC36098a91A3bD50eC4A4cD94812A84B22BaC3017
p175
VAdityaadiraju
p176
s.