(dp0
V0x6ba33fD3cC075D71C48597dF69278FFa3597a4F5
p1
VShaktimaan
p2
sV0x3f2032718dfc65d64c0c21b1cc9c4e0c7eab9ae1
p3
Vcaptain america
p4
sV0xd31c5Ff2216f4d139C05Be34C53eCcEb629d3280
p5
V10
p6
sV0x2d1EF08D350a5Ff4D1351b9BE26166171c967351
p7
Vnitrek
p8
sV0x4687193d7C4def8A36796795D7Ab865366bC0ED5
p9
V2
p10
sV0x085E946AbA16e8AD4acEC35ceE8ddf0aB3EB2177
p11
V8
p12
sV0x3F2032718DfC65d64c0c21b1Cc9c4E0c7EAB9ae1
p13
V12
p14
sV0x029519Ef06951FD94132C03BA8c3e2548f281e83
p15
V13
p16
sV0x085e946aba16e8ad4acec35cee8ddf0ab3eb2177
p17
V5
p18
sV0x029519ef06951fd94132c03ba8c3e2548f281e83
p19
V3
p20
s.