(dp0
V0x56Af097752628ebA77980Cf2e704dCb29281B993
p1
VVishwasb
p2
sV0x580E25F036936B84723D677d74757D76d7B32aaf
p3
Vpunyampp
p4
sV0x104e7CbB9ff327Fd6E17F801CF81AE6403C1d280
p5
VArchit 
p6
sV0x3305e1D53d235b719D0A267d1fB6d699bB0E1C10
p7
VMakAarti
p8
sV0x9DD4D7aDd63637Eb05f5Fc18E6F11F9376ee6AD8
p9
VThe Sorcerers !
p10
sV0x2d1EF08D350a5Ff4D1351b9BE26166171c967351
p11
Vnitrek
p12
sV0x0b5E606b39B9029C2e4FcED7C97B012eDBa96C59
p13
VML Hunterzz
p14
sV0x8D45C2acc0A582CB31baa6BAa761aDE7173c3B7A
p15
VChet
p16
sV0xABe03a544Efd8147CE451ceE8cCAA7E895fc400e
p17
VAnand
p18
sV0xCC8D8b086dBed45F087488E3BBb172d4fD67893d
p19
VJi
p20
sV0x17664421d825760920b971327aE18E054BE92669
p21
VThamit
p22
sV0x627306090abaB3A6e1400e9345bC60c78a8BEf57
p23
Vpunyampat
p24
sV0x0570490d91038Bb5725B2Dadf3FE919fD517B05C
p25
VAtul
p26
sV0x71De7bcbe8F4e5C54ad7e58856C70C19CdDAb1b3
p27
VDanger Danger Creeping Closer 
p28
sV0x9407fF05df9B102eaaF935a209dC7D037BaC831a
p29
VMaddy
p30
sV0x7BdaCcE1A779A1232f1Ca3272d93Fd63c3e48F44
p31
V
p32
sV0x2279e1F61524857F45Cd4A3704B623fc50Aaf23e
p33
VWhistle podu
p34
sV0x4687193d7C4def8A36796795D7Ab865366bC0ED5
p35
Vsachin
p36
sV0x42E918FcabB225a70db0392eaF6d80066ebCDc40
p37
VRakesh
p38
sV0xc698F70f80aC18C9C33c7289E6CA55e8B88468D6
p39
VkingsXIpunjab
p40
sV0xB1ff063A7F26b4d5bd35369e6561b065e83a77CA
p41
VThe Sorcerers
p42
sV0xfdcE80F4ACE9723e874DF236FAdf0BFBC6598818
p43
VHemant
p44
sV0xB768C03252a81667f60f3a8334077B2049A41412
p45
VSandeep K 
p46
sV0x21306b1bed3354a465B856D18D360B98821C99Cf
p47
VRohan
p48
sV0x9BcF3b641A4ff536ABf933e54d7d8bEf25C3D9f1
p49
VMavericks
p50
sV0x9F0c3Ba110E3E61761992fea58D125f601164ced
p51
VPacknik
p52
sV0x8489e3aaA2227be24C0b6708e24b5D93D9Ae6aa8
p53
VPooja
p54
sV0x44A44315d69C4AF27c76B3b5e8C11b5CC92d24b3
p55
VLogan
p56
sV0x085E946AbA16e8AD4acEC35ceE8ddf0aB3EB2177
p57
VPunyamP
p58
sV0xe243Ce7166c8A42F665D9C52429E8ddd6022F18c
p59
VTatarus pit
p60
s.