(dp0
V0x56Af097752628ebA77980Cf2e704dCb29281B993
p1
VVishwasb
p2
sV0x6ba33fD3cC075D71C48597dF69278FFa3597a4F5
p3
VShaktimaan
p4
sV0x4687193d7C4def8A36796795D7Ab865366bC0ED5
p5
V2
p6
sV0x085e946aba16e8ad4acec35cee8ddf0ab3eb2177
p7
V5
p8
sV0xa63A91EEFc809460350b8cf2800efC2837F85ba8
p9
Vpankaj
p10
sV0xc9099e90539ee847f0EF8e8184422ca365368078
p11
VWakad Whackers
p12
sV0xd31c5Ff2216f4d139C05Be34C53eCcEb629d3280 
p13
V9
p14
sV0xd5fce01f55CA5c068fa08f0B0Dcf05c2Afa8DFa7
p15
VJCB
p16
sV0x437737D6f1366Fb13f3cdaC14cC6a2429d2A0355
p17
VIpl-prophecy
p18
sV0xABe03a544Efd8147CE451ceE8cCAA7E895fc400e
p19
VAnand
p20
sV0xBb7ee534c7B6fF0A62D3ef513Fa7152c4c28f255
p21
VSmita J
p22
sV0x31B30e05678546Ae7982C8eD4E208E406D01A6c9
p23
VLoneRanger
p24
sV0x403766729F7Aea86bc589DE87070Cbd627f9bA15
p25
VMSG
p26
sV0x923D23a04bd10918Cb3a5da19adDf4eB26a8F646
p27
Vmanas
p28
sV0x61e457D70C83893d790cb13AA4285564B3E9ce3f
p29
VScavanger
p30
sV0x9407fF05df9B102eaaF935a209dC7D037BaC831a
p31
VMaddy
p32
sV0x93217CFb7c236BDC4AB6ee84fcC650080F432cEE
p33
VSwets 
p34
sV0x7BdaCcE1A779A1232f1Ca3272d93Fd63c3e48F44
p35
V
p36
sV0x31CCEBC84B545F19fC918d34bFA96f1d5919d350
p37
VArun Singh
p38
sV0x950dC7c64A66b86c4d060D4957bd62eD524B8DB1
p39
VAbhiKulk
p40
sV0x42E918FcabB225a70db0392eaF6d80066ebCDc40
p41
VRakesh
p42
sV0x5C5B3612D03f73bF14132BEBe46FD8c0e12C64FF
p43
VSkull
p44
sV0x85c51f205F0e6c4865551d27B3516C1bD4cf0b40
p45
VRavi
p46
sV0x8A219C1ae4f068b3B17a6cD7670f2AB7f78D344b
p47
VIplchamps
p48
sV0xc698F70f80aC18C9C33c7289E6CA55e8B88468D6
p49
VRandom7
p50
sV0x4904341D8779E10d77036cc209ecfbB2a1bacB8C
p51
Vpsk
p52
sV0xB76Fb489b82291532DCFCc9be8BA7243d1799A8d
p53
VDushant
p54
sV0xfdcE80F4ACE9723e874DF236FAdf0BFBC6598818
p55
VHemant
p56
sV0x2cBfbc6f2e28Bf871Fd0587fEb2278b7f51d3A5c
p57
VJkalalsingh
p58
sV0x6B73B8A771A8428DB29dFd0C5fEF6f143EE21218
p59
VDeep Minds
p60
sV0xD213a31ac1D75A17f47461597488dDb83096Ab0A
p61
VSanky
p62
sV0x67F0971f6b2d97cd01027f52Fae731c3472dFcc8
p63
VSjyptr
p64
sV0xb32009A158c558dAecbf7610E198BcB61d551BD0
p65
Vnidhi
p66
sV0x91902e5771b82225b7833d8b9FFbc85B3108623B
p67
VShekhu
p68
sV0xcd631915f9bC8F66bDc721273C070c07e1852dE1
p69
VDJ
p70
sV0x21306b1bed3354a465B856D18D360B98821C99Cf
p71
VRohan
p72
sV0xCa7471d8F897cdaf2fd9294B13D20E5669650AD0
p73
VIMHSAR
p74
sV0x7b2B9dAE510f3027F23A2A94E0f013F454b7989f
p75
Vaad
p76
sV0x68E79aEEa88AFD65372feb7962A99B73A1B34968
p77
VRas.rohit
p78
sV0x7CE50118BBc4208df6c6127bDe4560e44C04bf59
p79
VViren
p80
sV0x1d4791e3866AD4e21e5a564170c055B4CEF36443
p81
VYuvraj
p82
sV0x86F7107b708aF579aa7543c194a7fbFA7Ef856EA
p83
VPiyushN
p84
sV0x43A65B80e729406b15A855CD9E3d4aB8e54B248A
p85
V999999999
p86
sV0xd868e9644551D62F1C3487bc94159B4Ee1Ae6d15
p87
VRaghav
p88
sV0xA1A769Fc2E2270fd12F749963a9f873598b25CbC
p89
VGeniusGirish
p90
sV0x40F4d6663ca7B692c7B4BdE028F42ab804381ed5
p91
VKhelo
p92
sV0xA0387Dc3c0b7f2D5c558BDc5A4B829E379CC8E9E
p93
VAK
p94
sV0x568A5c518f0DA943756163214149Af4cD52232F3
p95
Vravindra jain
p96
sV0xCC8D8b086dBed45F087488E3BBb172d4fD67893d
p97
VJR
p98
sV0x536FDa0763e8f1dB863B7Ed795750D897F722090
p99
VSagar Pawar
p100
sV0x627306090abab3a6e1400e9345bc60c78a8bef57
p101
V6
p102
sV0x6bACFD81f5C6B99494353Ba12199893b26E83941
p103
VGame Changer
p104
sV0x104e7CbB9ff327Fd6E17F801CF81AE6403C1d280
p105
VArchit 
p106
sV0x3305e1D53d235b719D0A267d1fB6d699bB0E1C10
p107
VMakAarti
p108
sV0x57c6Cb5683FF474Ff425E40b60eF76540470916b
p109
VPramod
p110
sV0x9DD4D7aDd63637Eb05f5Fc18E6F11F9376ee6AD8
p111
VThe Sorcerers !
p112
sV0x466065CbA08a766B2B71B48a6CbCa88908817351
p113
VAnkit
p114
sV0xdE05C3C207F4B09c3538B31eA3c1Fb039d1FC734
p115
VDabangHero
p116
sV0x0325b90d0A871c9bC96485A932E1e326226628fc
p117
VMonica
p118
sV0xcf7fea22fC2A486c782b0e49222B8a571bA6581D
p119
VPrerika
p120
sV0xDCA5363cC4d49042F92578c1644DC73D68AF4255
p121
Vjayshree
p122
sV0x17664421d825760920b971327aE18E054BE92669
p123
VAmit
p124
sV0x26e477AB2cBB1EB9cd163f800C0DC8274071eaFA
p125
VScorpion
p126
sV0x7b4f86bCa56890108fA4a9FCd0c1dD119967a3B9
p127
VSamyoo7
p128
sV0x42C09605F6A7a0D5f28EEE57294ae00cb6939Efe
p129
Vcvs257
p130
sV0x24f61F4FA30770bE8D1b39063b6DC3D70cAFA953
p131
VNiraj
p132
sV0xe23D42F84471465e79Fa20854454bdcc96784722
p133
Vamol1122
p134
sV0xB768C03252a81667f60f3a8334077B2049A41412
p135
VSandeep K 
p136
sV0x9CEcD0756B011E522867552a39fd1BfcfE16eCA5
p137
VAshu
p138
sV0x7BBd0D6CFC145135F5d7596351101e3a973dFE5b
p139
VFrenzied 
p140
sV0x209bA11Df594210a69F64427884A7938dfcf2f91
p141
VPinks
p142
sV0x68C1F10e980db565e9B9F6a1E12f178096e09426
p143
VAflatoon
p144
sV0x2d1EF08D350a5Ff4D1351b9BE26166171c967351
p145
Vnitrek
p146
sV0x1cc6D119B8E5d41995D9C9F2210c7997A9C155A8
p147
VCheetah
p148
sV0x5296685B3d0EBDcE47cfbC437e7E9682D58571FD
p149
VSTRICKERS007
p150
sV0xB9664a7b25c65Ea49e0547540CCa84610dcF3865
p151
VITBackbenchers
p152
sV0xCCbeA5EDB29984D4F3D559167FE7f2b51A1142EF
p153
VKunal
p154
sV0x580e25f036936b84723d677d74757d76d7b32aaf
p155
V7
p156
sV0x8015B26c75686843357eDfc89C761c0fe7118CF5
p157
Vchaudhary
p158
sV0x7795270c89d522189272e5EE418B613f7f2F86F3
p159
V3EyedRaven
p160
sV0xec3677d8b6de530Fcf830A59f03397e2005dFa27
p161
VonlyAbhinav 
p162
sV0x3dF89767745e7E07A281be5DB39Be37E3b625F60
p163
VManny
p164
sV0xeebAf514323e880fEf5A7ac7C08b009B5cB11523
p165
VOmi
p166
sV0xe193717dbdB9f1d92C8B7Fbac8D68bab92cb85b4
p167
VIplpredictor
p168
sV0x9BcF3b641A4ff536ABf933e54d7d8bEf25C3D9f1
p169
VMavericks
p170
sV0x90F2bc9aB0e246648da97AE60a2cf5Cc6eD19F5a
p171
VRoyston
p172
sV0xaf49F9eFDfDA7545d962A61F5ce7A86c30cD9A86
p173
VCV Coders
p174
sV0x7588f3544607ca636cF83446Fd746E1fd2B10fC7
p175
VAyu
p176
sV0x8489e3aaA2227be24C0b6708e24b5D93D9Ae6aa8
p177
VPooja
p178
sV0x43A1f398B757DEB15C09A77DF96700A9c70c4237
p179
VDeep
p180
sV0x085E946AbA16e8AD4acEC35ceE8ddf0aB3EB2177
p181
V8
p182
sV0x3F2032718DfC65d64c0c21b1Cc9c4E0c7EAB9ae1 
p183
V11
p184
sV0xa9861c680ac3613b2F0864C867A156b7214Dd771
p185
VPravin
p186
sV0xd35cd516Bd52d839B1c859b8448fDa13490e2A35
p187
VLalit1548
p188
sV0xBb99C60950F121E146BEF2F328e8c82FF077F97d
p189
VIkillz
p190
sV0xBfefb3A01D23AaFB57baD394981E3dB021A21b28
p191
VHarshada
p192
sV0xA191eeAe0cB9C552EEd796d35CFaDeACf64fB6FF
p193
VPk
p194
sV0x02E55D8e0EE5ebe62434181B0Bd15f8BF10b5BF6
p195
VGsunny
p196
sV0x65b07E64cB0f55477c082a04D3446327D85b1896
p197
VMLYS
p198
sV0x1Fe7877f99C39898C40A6DFc0cB06F346443cBB5
p199
VNare10
p200
sV0x700B3D909dE039f330cc3Be7a022C28662E0fe87
p201
Vvarun_vj
p202
sV0x0035BaF4C977838EAD3522e2163bD60fd8649fa2
p203
VHORIS_RETURNS
p204
sV0x60F0d29c8e64ecEAe475bcCf845D7d4b5D9FC446
p205
VTiger
p206
sV0x0112a247990E919fAA066deDb076e1c4FBAE7280
p207
VJEET
p208
sV0xf1F6F3c15f5Ab6736652787800b778880861fBCf
p209
VMyBestTeam
p210
sV0x6dC6d61B05eD1756fBA7E73ee5B5e1e97C4C6E9D
p211
VDhruv
p212
sV0x7d6393Aa87b4ac3427D7357953b20c7826E27d02
p213
VNovice
p214
sV0xC0794D3570ef34813c59F7C43D7b4C7Ac5073E1C
p215
VSRK
p216
sV0x02F9eb0C885cA44f95A737574b2eFfD0eabd4052
p217
VSikander31
p218
sV0x0341a6CaA5cbD4230F758D6f74F3F270DE0D6191
p219
VMSK
p220
sV0xc661f5b8A21e3Aec0301240Cdc360D27967493A6
p221
VSnehMujoo
p222
sV0xeADf3aa1d903fcB3d499BB3b6AE94FEa86556c73
p223
VShip
p224
sV0x5f21A736CFf6E68B72F8027998d9CCcf15505dAc
p225
VRavindar
p226
sV0x078f03bD81E31cFeec1e4Bf7649Eb8318fa9b138
p227
VSparklers
p228
sV0x018Ca9B3373eE423D62f82D4eDE7E2fadFe8EeA7
p229
Vatul
p230
sV0x6C96532d9DB924E4ed82d2b0017C906734AF2665
p231
Vgjain
p232
sV0x3F2032718DfC65d64c0c21b1Cc9c4E0c7EAB9ae1
p233
V12
p234
sV0x2279e1F61524857F45Cd4A3704B623fc50Aaf23e
p235
VWhistle Podu
p236
sV0x9698cd9BE5d0773F1bf3E0E572DA2aAA9008DEF4
p237
VAshish Joshi 
p238
sV0x69cF0DeA7806A9A52798dC2CfDE44A5EE4ec481b
p239
VThe Predictors
p240
sV0x0de75Cdef165c8BF091D22D7f93f5A59BB8C5f6b
p241
VKrishna 
p242
sV0xD3fFcE67293C2bA0521F4BDa4D2d9459063E1766
p243
VHorisReboot
p244
sV0xF1f9E7Cb2581D529b1F5398f64dc76DFaa09186a
p245
VN4Narcissist
p246
sV0xB7dce33e9fbC73Ec079F05E0e4a56916831Bff60
p247
VRupeshK
p248
sV0xd31c5ff2216f4d139c05be34c53ecceb629d3280
p249
V4
p250
sV0xc82f26AeE9b7C72E401103D0182c95C0C1178730
p251
VTusharpatil
p252
sV0x25D0A3c8253a4393c6286Bb1563FF8Bd2F5C4071
p253
VThe Jolly Cricketer
p254
sV0xEeCA942273FC235040b3169eE046F86C7469e7F0
p255
VTodu champion
p256
sV0xd11638EA7f93Cf8050a0feD19b9E3546563557FD
p257
VPredictors
p258
sV0x35fE1791bc945f3AB875557b98Fddb5B83AbE4DE
p259
VAnkit Jain
p260
sV0xD43e8A09F67Cd3D4B5cBD766dF38cc1556371037
p261
VR\u20ac\u03c0uK@
p262
sV0x353a7d17651bb6746ae4fb774b0a7fda5775c5b7
p263
VArchit
p264
sV0x5e1E98cEe9056A7C632cC6635AF925C467e974B1
p265
VPeeyush sodhia
p266
sV0x6c30Cd77e6f4799201A7B97b1Bb7754Dcd5F8196
p267
VJT's Team
p268
sV0xB33fD12e5197F0D1E0Fb40b084f87261e1654B7e
p269
VRohan DLT
p270
sV0xF614BAAb0Cc6D5bDB412d013e7F66B51D113D79c
p271
VTush_DevD
p272
sV0xFd801F94aeD84EaefAdFB5c2ACe77D54E368806E
p273
VDivyaIPL
p274
sV0x9F0c3Ba110E3E61761992fea58D125f601164ced
p275
VPacknik
p276
sV0x7F7B730A3793eb57f4723dc6d0F62dE895f1BD83
p277
VPravinBane
p278
sV0x4890272E8D3E9faB32B9FDe829235A6d16b93E7a
p279
VSagar
p280
sV0x4fBE1ae379936CaEf4f28cfDc3623478b9bf2C93
p281
Vsachinmang
p282
sV0x7d268FA6aBF6d37d47Fd521CAe8c491f115399d1
p283
VUrvi
p284
sV0xAB42Aa9287BeCC40F3e7F4149362dB6D65C7B52a
p285
VSushantm20
p286
sV0x27E6485D349b3939eC8Bd2378A5A0c3eD9526705
p287
VCricfrenz.com
p288
sV0xD7550253008C72978E1074d991D097A8F97eBF89
p289
VPIJU
p290
sV0xdC376B1119761c785D6D899E1a9ff200b3150288
p291
VRaka
p292
sV0x029519ef06951fd94132c03ba8c3e2548f281e83
p293
V3
p294
sV0x029519Ef06951FD94132C03BA8c3e2548f281e83
p295
V13
p296
sV0x2435cb7F131BfDB1797B00D5E767C00327F3DC2D
p297
VAala re
p298
sV0x554f8719c9F7a402bA6cd6CC62853ee79170979c
p299
VDivyaIPL2
p300
sV0x7D9a5C0BD2eE7a7E63f0BBF2D09267c411B5d299
p301
VNikhil2705
p302
sV0x0b5E606b39B9029C2e4FcED7C97B012eDBa96C59
p303
VML Hunterzz
p304
sV0x8D45C2acc0A582CB31baa6BAa761aDE7173c3B7A
p305
VChet
p306
sV0xD2ac5EEB03bFb8Ad8fB864a55060CfB2a8294C04
p307
VCrickbot
p308
sV0x6e324a83838daC2BdA98ccb0032e8514F681691D
p309
VSac
p310
sV0x8Eb7B5e80dC8D74fb309Ff4de81aB9cA54271A21
p311
VThePredictors
p312
sV0xa56ae14521Aea1e895042cCe419Ad46a4BED9eBF
p313
VShilpa
p314
sV0xc2891aD7E8F3E6fC0EBFdd15Bf94DFf696488FEd
p315
VSnehal
p316
sV0x0570490d91038Bb5725B2Dadf3FE919fD517B05C
p317
VSharma18
p318
sV0x71De7bcbe8F4e5C54ad7e58856C70C19CdDAb1b3
p319
VDanger Danger Creeping Closer 
p320
sV0x306D91d6F8672214D13e2533090f8A98A150aebD
p321
VRJ
p322
sV0x48693753de326661854077C314E90c80081C1df3
p323
VBhayankars
p324
sV0x660Bd9576575c013Ab6709dd4174896b328c0Fb7
p325
VSamreen135
p326
sV0x973462E09B540f877FD3329cbfcF48a711c2aB10
p327
VDesiBoys
p328
sV0x5ad87d6dC529D20f13AAB3dd17c28B1798DD843c
p329
VBS
p330
sV0x23DF4df8F639CC846A15839f721B50fEccd843d5
p331
VWarrior55
p332
sV0xB96Ec7B19C0de269d610a2F8E12d2c25c16a1102
p333
VCH7
p334
sV0x9a07244CC971aE04f6884f7a11E85DB37238c64A
p335
VPratyush
p336
sV0x23A75CCC13ea4ac7F79B3Ce822eB3200A00C4883
p337
VNavish
p338
sV0x804AE22Fb388C542b2fE0A011A6517d45890D356
p339
VKavitasolanki15 
p340
sV0xa20C66485296f1Dc0667c78Ad57D0ED2455bFa41
p341
Vsanjayr
p342
sV0x7B1534F6e3aab1CF8Bb5718aB2010efCB928Eb5A
p343
VOnboarding Super Kings
p344
sV0xB1ff063A7F26b4d5bd35369e6561b065e83a77CA
p345
VThe Sorcerers
p346
sV0xF9C3832f73ac60e79f00337d701b4e45F8FCc0B9
p347
VChetan Sharma
p348
sV0x31548Ae0ca7969720f59d9e4f5B926abA255BaBf
p349
VRS
p350
sV0xe2480029E0226178Ff891bC1f8b16F7f4607E150
p351
VNovice rookies
p352
sV0x7a25db56677de938f85696f35b3fe89a80be534e
p353
VMac
p354
sV0x6C8d9AcECCC0C718e416AF0221d73C28c0E2B7aC
p355
VDoremon
p356
sV0x17cCa64Dc2c7BD5925E288752E80a8726E972880
p357
VRJ_B
p358
sV0x876f5897EDdebEFceAC097675261384044CD801D
p359
VST20
p360
sV0x449857D5Fc0674a82e72e53B7C46C089C0A35061
p361
VKph
p362
sV0xCFC4A9c2d4D0EE56e2f3e236edf75c391e6C0076
p363
VMahi
p364
sV0xDD8c4AE29Def9DB47714e32058A1CA5D51de4940
p365
VSachin D
p366
sV0x1E54624FcC6f645c0B4c60BB01b9ceD9b059eEC4
p367
VTushar
p368
sV0x4c319522e57061247eB1f7a112b7EF1aAFA0D478
p369
VPuneriBlockChain
p370
sV0xe243Ce7166c8A42F665D9C52429E8ddd6022F18c
p371
VTatarus pit
p372
sV0x252EDD7640E5db216786d9F160da54437B339eD7
p373
VIpllover
p374
sV0x0518cdb9d6598BCB354B13A67Bbe20Fe2923b779
p375
VSupriya2805
p376
sV0x1b6573Fd25887F6b4601915f3AE684f5c6a603CF
p377
VMachupiccu
p378
sV0x511Add398d85FD5E7382210B2DafE07B248bd9e3
p379
VRomesh
p380
sV0x192B41a5748F1d69f8b745a78F20f558abB988eD
p381
VTAS
p382
sV0xa55096ac1B655940db863ab606621CE0F4bcb581
p383
VSvbipl
p384
sV0x8D42cF17d8843628Ed5968F8A142F07C67478a24
p385
VTJ
p386
sV0xd31c5Ff2216f4d139C05Be34C53eCcEb629d3280
p387
V10
p388
s.