(dp0
V0xF02739da192006d4F6b089fA839262938d4337ac
p1
VPG
p2
sV0x93EA5285074924ce6A1aC16036a7B6DD75F81947
p3
Vthegodfather
p4
sV0xBaA31ae408108A615bEBBDD414AA39E0d1634395
p5
VVarun@ResearchIT
p6
sV0x57d05FED913088194460894Dcc4Cb31F0A5671c0
p7
VNikhilesh
p8
sV0x7880C5d71ffb66E27a9898bBA510F53458503C4d
p9
VPrecision
p10
sV0x10114bDd7E248054cA7d3ecA3683190314A40F7c
p11
Vpp
p12
sV0xd0b805daD97265c08Fe8A032F5050eC5818eC53a
p13
V@tul
p14
sV0x46A224e7A96025FE6aF457B18D1D240FdE47258b
p15
VChetan sharma
p16
sV0xa6307a8B61C4fA88077E369Ad0e2085731C9c59D
p17
VGajanan
p18
sV0x866C9eCf5d2cbf8D897B2944eEAFAbBceA50A668
p19
VSupport2
p20
sV0x314Da668b2e2618C7590248C3FE36D695925b2c4
p21
VAdminPP
p22
sV0x75D1E6656B36bB4f4136176BC5e6e0A26BDF5fbF
p23
VUdaykiran
p24
sV0xB8Cbc5f706Ca4eFbd0eC52FF6a3e89d7b1DCEcCB
p25
VKabi.anant
p26
sV0x9e93197E6f19c5E0654d3243C15E844f6A66D742
p27
VSupport3
p28
sV0x620500fa7efe7FF3a67DD6ffcE73d0f82d19f056
p29
Vnitrek1921
p30
sV0x575c22123D9845A222f23E988d45A485AaA25ecf
p31
Vpsk3005
p32
sV0x09abDeB06799bf6a66121de92e441b2643E6F72E
p33
Vrohit499
p34
sV0x4806639B1186EDfb9F3a3656Ed4122F1220509e7
p35
VKishi
p36
sV0xCFa820A77c50883805497988ee02faAA866ed68F
p37
VAladdin
p38
sV0x7CE50118BBc4208df6c6127bDe4560e44C04bf59
p39
Vviren
p40
sV0x4890272E8D3E9faB32B9FDe829235A6d16b93E7a
p41
VSagar
p42
sV0x815B67efcbf7217a2A784d2Df2c051184AC10F4A
p43
VVinayTakawale007
p44
sV0x82361Ac015A000066C051B1A4f3407C8e946918a
p45
VAarti_M
p46
s.