(dp0
V
p1
VSanidhya
p2
sV0x6ba33fD3cC075D71C48597dF69278FFa3597a4F5
p3
Vsuperman
p4
sV0x3C1C5a4Fe2a20B0702426f3580A01F8212b94Ae1
p5
VRandom7Killer
p6
sV0x87F65dE25f8193Df60c7AC39B9e4b8e3431f42CC
p7
VHimanshu Hansaria
p8
sV0x20e7DB048A799b34eDE83A8431033AdCF5eF1c6b
p9
VRailSplitter
p10
sV0x93EA5285074924ce6A1aC16036a7B6DD75F81947
p11
Vthegodfather
p12
sV0xaC53520Ffe2072398001AE05d7e7C9f850280a70
p13
VCSK Fan
p14
sV0xaE79A0D2D08c685028F7645eA61015bC108D869e
p15
V@Garib_Insaan
p16
sV0x0C00959b7Fac6af348c471951EfAE148Bc182E70
p17
VShunya
p18
sV0x92677df12afAC77CF0ac2E1879E81038bd37C22F
p19
VNeeraj Kumar
p20
sV0x73E6d0879f3A796E9a407671B4329b60f2700fb4
p21
VSumeet Kataria
p22
sV0x7Ce21fd6242CD7E5Ffc23b2E3cdd9931Bf7f4738
p23
VSagar 
p24
sV0xf1bcf80709A8efBBc6134d3055Ae2cB778fA7700
p25
VPranshu Topal
p26
sV0x77C61D5Df8759cef69DB539f88BD014ab2C10440
p27
VRupeshKirmirwar
p28
sV0xcfBDd39564799834a8AA02c6A90E2631A432CA66
p29
VKrishna Bellary
p30
sV0x3Bd5C646710cf996Ad67e833f2d9b923132046dc
p31
VPRAGATI S
p32
sV0xa6307a8B61C4fA88077E369Ad0e2085731C9c59D
p33
VGajanan Lokhande
p34
sV0x866C9eCf5d2cbf8D897B2944eEAFAbBceA50A668
p35
VSupport2 sb
p36
sV0xc6cA21f937ad48439d9F64052568687e5446c603
p37
VCoolrider
p38
sV0xC8fdB5370311Aa266A4Cd5253Bf3100fdb5Ec873
p39
VMOHD AQUIB
p40
sV0x720D0c0F3Fe0803E69832ae12CdF424212D63B42
p41
VAtul Sharma
p42
sV0x19FBBD48AF979f2De242E488a84257D29bD15cBF
p43
VPramod
p44
sV0x81c08AfCe9c26A8E97acEF91969610d07a03d527
p45
VSorcerers Reloaded
p46
sV0x46A224e7A96025FE6aF457B18D1D240FdE47258b
p47
VChetan sharma
p48
sV0xCFa820A77c50883805497988ee02faAA866ed68F
p49
VAladdin
p50
sV0x7CE50118BBc4208df6c6127bDe4560e44C04bf59
p51
VVirendrasinh Gohil 
p52
sV0x28C8870D00613fA4891786f7b7aBE0A6554fDc16
p53
VTanay Mathur
p54
sV0x82361Ac015A000066C051B1A4f3407C8e946918a
p55
VAarti M
p56
sV0xA7939BfB7f6eB24400089B4E15fFA41cBAc39E00
p57
VPrajwala Srivatsa
p58
sV0xF02739da192006d4F6b089fA839262938d4337ac
p59
VPrashant Gupta
p60
sV0x34d468911b35972135bE8FcE696844213699aB00
p61
VKrishna
p62
sV0x7B1bd3b475ACA7E38CCa1615a7e631c3D36Be838
p63
VAksS
p64
sV0x652e530Bb721a5A964359148CB415E38C3A8B655
p65
VRajesh Gawade
p66
sV0xf058629952eB3Ef5229920d267cB48c3Ef55aCeC
p67
VProthit
p68
sV0xE59156Be85ece7983511A6F8019525Eadc03c3aA
p69
VYogiDon
p70
sV0xc5d52c225AF6779994A324126967763Dc9E1c1A3
p71
VTushar Patil
p72
sV0x8917A4FF8F99470B9414E49735E194Fb6884da22
p73
VAkshay Sukhija
p74
sV0x7880C5d71ffb66E27a9898bBA510F53458503C4d
p75
VChirag Kankariya
p76
sV0xa442BADE1Fc599c28C83e0f73Acb51e9DeBAf37F
p77
VJyoti singh
p78
sV0xb2b285eC627640388BE46c19178b04C663f2f68A
p79
VOmkar
p80
sV0x2841d0429E7D8a2a2Cfb47f06A4c9E3EfceD01b2
p81
VChacha
p82
sV0x51859A271e9ff4D54fC39C17693F1727627F0865
p83
VAlphaGoShunya
p84
sV0x79E565fD0FD376818Ae086FC25da448a2FF18Ddc
p85
VAvinash Jedhe
p86
sV0x5D9fD8620B95A51c33868f408Db70D6BC39CFEC7
p87
VGirish
p88
sV0xedeCDe2E86B08226A934d105C77C96768FCfbF60
p89
VFlash
p90
sV0x575c22123D9845A222f23E988d45A485AaA25ecf
p91
VPraveen Shamlal Kithani
p92
sV0x1346C1876553f817ACB9AC35c4f522CBF9Ec2e15
p93
VoKtopus prediKtus
p94
sV0xAC924217A6e7a09E9B335068B64Fc441819A192c
p95
VKunal Maheshwari
p96
sV0x09abDeB06799bf6a66121de92e441b2643E6F72E
p97
VRohit Srivastava
p98
sV0x1BdB1300383d942Bb7133D02C1B63135C6E90F5c
p99
VAnkit Saraf
p100
sV0x20A249c969cE74C8F9A3Fe1B8192fC7428f7CAc6
p101
VShwet Ketu Haritas
p102
sV0x4688cDaD56684CAbE81ee6A995656E21Bc6F4c2d
p103
VPrasun Pande
p104
sV0xC6eC9aa1935c31c98273F6366fe7B49511bC5CB9
p105
VPrachi
p106
sV0x0Ea7DaBBD4CB4557b87AFbC5170047881318049F
p107
VShubham Thakur
p108
sV0x9dc10fEfAf98c5CE740279B57C03210Be4F2772C
p109
VLights
p110
sV0x7103209f00BDe90DFabbe17b13Ac0836554326b1
p111
VXYZ Prediction
p112
sV0xd43f53143EE0f169B3Ead8cdA588B0583F13C548
p113
VRavi Sharma
p114
sV0x4857B97feb1C94cC0fE72390deE4aB052df66107
p115
VTwentyashes
p116
sV0x164732a3fcF8b36dAD8C6bfD11918c56b1A54c3b
p117
VKiran
p118
sV0x7F281966076Fd1404c07C62f96C9983589eEDF4D
p119
VSneh Mujoo
p120
sV0x21b5357d0bF687843aDeEA7e80C6477053c46c17
p121
VRandom7
p122
sV0xaDF23BcdF9cb4f04111fB8D8583500644fD5f51c
p123
Vipljunky
p124
sV0x2cc704077Ef0DfaED6b5C0af65D44558d26B25e1
p125
VDipendra
p126
sV0x7e1Cbee4b0300399BacC1ADeA2D84d4A039f14bc
p127
Vjkgb
p128
sV0x0b8b6fE573aF299684a0990f90Da330F683A7C61
p129
VMSK
p130
sV0x1F33D43e6D5197Fd63dDC6770C227B34F3602496
p131
Vak2605
p132
sV0x80d2c90B8C31F6eEEA31adEe76D72B188F96D061
p133
VNiraj Diwan
p134
sV0xD5cC71CB870747A6AB4dEF661D5CCa7bbd1404a3
p135
VKunalG
p136
sV0xb01b05b3408070dA647fBB606E4C71B6D123a06d
p137
VBhalchandra Joshi
p138
sV0x3d686b21214ebe8A2663E1824591c64a63Ae1075
p139
VJerome
p140
sV0x314Da668b2e2618C7590248C3FE36D695925b2c4
p141
VAdmin_PP
p142
sV0x75D1E6656B36bB4f4136176BC5e6e0A26BDF5fbF
p143
VKiran Kumar Pabboji 
p144
sV0x8C5B4d31920435B6d0b9C49893675b920970ff60
p145
VMohit Gupta
p146
sV0xB8Cbc5f706Ca4eFbd0eC52FF6a3e89d7b1DCEcCB
p147
VAnanta Prasad Kabi
p148
sV0x59Bc74C56D9c6D5247e889245b7df199344Ab45C
p149
VJeet
p150
sV0x044c3f4F5a30249d91384047b70B9Bb99E43B093
p151
VMangesh
p152
sV0x25dC0e5A62f349Ae07529afBEbd1e57C153f0Eaf
p153
VRohitRas
p154
sV0x5F66bE2290E9C1cdce674C9d78F660E0fB2bd743
p155
VVandana Jindal
p156
sV0x48191c9860d21528b24188b2d0415b3D0145Fc1E
p157
VAnurag
p158
sV0x2e37E44e598A7E34F94C4A6E36160956293812e6
p159
VChaitanya
p160
sV0xCDc63E739aCD3b483b3e7cA1A70f794fB86BdAaD
p161
VMatrix
p162
sV0xA2c3dD5333c9B01B956AC3D0566Dc8a8e8a0f39F
p163
VVinay Takawale
p164
sV0x478E12D50970071047814aeEA70a8402968822EA
p165
Vsanro1
p166
sV0xF75d468AC8833b6c8AA1B3138C0A79F1F2968f09
p167
VAvik Chakraborty
p168
sV0x9e93197e6f19c5e0654d3243c15e844f6a66d742
p169
Vsachins
p170
sV0xdC757B4b5f6E4A6f9110BeF60D6b1dCEFcee1C58
p171
VTanvirs 
p172
sV0xd8C3F67F3F62baD979afbF2Bcc8dce3d7F305bC7
p173
VSarang Chauhan 
p174
sV0x2d1EF08D350a5Ff4D1351b9BE26166171c967351
p175
V#DilSeMI
p176
sV0x036899047Ca411AaBAfF8b7EaDCc2224d0730877
p177
VRabi Patro
p178
sV0x727A6f38be1A5a532De9c1839BcFBa719F4eA231
p179
VShirishT20
p180
sV0x12883267298A5666e68e1379Fb99DEc591b2C700
p181
VKAMSY
p182
sV0x57d05FED913088194460894Dcc4Cb31F0A5671c0
p183
VNikhilesh
p184
sV0x6C4E19b45398057DBE16EEC5f04a836f71b65aDC
p185
VOptimus prime
p186
sV0x698DbF061d643c5d103f4f2E82F7d314777D432f
p187
VVivek Gorwadkar
p188
sV0xEB5aE75Cb9A623EFB761d78fC9427b785D99bC1B
p189
VML Yuva Sena
p190
sV0xb81E269F5D2658eF5B1c74FEE7A69F1Fb1a85043
p191
VPrabhat
p192
sV0x377992166266E2DdA97CBd3f46B9952A34aCEce4
p193
VAkshata Raikar
p194
sV0x4687193d7C4def8A36796795D7Ab865366bC0ED5
p195
VAdmin_SachinS
p196
sV0xb4a0Fb49de160Eb8BE526c0a0bC64363cf9f6CB0
p197
VGame Swingers
p198
sV0xBD521485B66510F2b06bD2696EB2Cb0F39f7a6FC
p199
Vrahulsingh
p200
sV0x620500fa7efe7FF3a67DD6ffcE73d0f82d19f056
p201
VIPLKiAAG
p202
sV0x01e491E38A14Ebd7E6419F5581762CBEc8260F52
p203
VLalit Mohnani
p204
sV0x107ab29EF6432b2FF5a22FFC9dBF832305dD2Ce3
p205
VProthit Majumdar 
p206
sV0x94Fb1f84f486FA517A07e46cc8977cd37f33F493
p207
VWillSmith
p208
sV0xdDe4Ef25E0A5c4A17c8f71eF702c7AF9aE66DBCe
p209
VKushaltikmani
p210
sV0xcC80f86422D9ee4082d1Dcec7014722c493315f8
p211
Vsiddharth
p212
sV0xa603D25D9C2318BAAB38621BD66227dc142c84BC
p213
VSuvit
p214
sV0x0057B9A188Aaf10FB2004D85a883090Db7B11B22
p215
VRamdon007++
p216
sV0x3D1541B00bB2FA515a45FB323f186aF388dEDaEE
p217
Vchawkidaar
p218
sV0x10114bDd7E248054cA7d3ecA3683190314A40F7c
p219
VSupport_PP
p220
sV0x9b4db6D7eB0a4fAdE4cD9b1059A7f3780B7aF9eB
p221
VArpit saxena
p222
sV0x3eE2Ccd95558dD586489972f9b1Ba06D8eE083b5
p223
VPappu
p224
sV0xa75A66f0B029979189F75E0D2fa4B51704Fcaf93
p225
VKaram
p226
sV0xc5B197716f8bC0840D7D7034EF577b643A5Ee436
p227
VPratyush
p228
sV0x328A8868f05139bb93e869Cb0F345e1D5B344f58
p229
VIksha
p230
sV0x3A14C421F313fb944158D703cAF74aAb8A5a069d
p231
VAnkit jain
p232
sV0xBaA31ae408108A615bEBBDD414AA39E0d1634395
p233
VVarun samant
p234
sV0xC36098a91A3bD50eC4A4cD94812A84B22BaC3017
p235
VAdityaadiraju
p236
s.