(dp0
V0x56Af097752628ebA77980Cf2e704dCb29281B993
p1
VVishwasb
p2
sV0x580E25F036936B84723D677d74757D76d7B32aaf
p3
Vpunyampp
p4
sV0x104e7CbB9ff327Fd6E17F801CF81AE6403C1d280
p5
VArchit 
p6
sV0x3305e1D53d235b719D0A267d1fB6d699bB0E1C10
p7
VMakAarti
p8
sV0x9DD4D7aDd63637Eb05f5Fc18E6F11F9376ee6AD8
p9
VThe Sorcerers !
p10
sV0x6ba33fD3cC075D71C48597dF69278FFa3597a4F5
p11
VShaktimaan
p12
sV0x2d1EF08D350a5Ff4D1351b9BE26166171c967351
p13
Vnitrek
p14
sV0x0b5E606b39B9029C2e4FcED7C97B012eDBa96C59
p15
VML Hunterzz
p16
sV0x8D45C2acc0A582CB31baa6BAa761aDE7173c3B7A
p17
VChet
p18
sV0xABe03a544Efd8147CE451ceE8cCAA7E895fc400e
p19
VAnand
p20
sV0xCC8D8b086dBed45F087488E3BBb172d4fD67893d
p21
VJR
p22
sV0x17664421d825760920b971327aE18E054BE92669
p23
VThamit
p24
sV0x627306090abaB3A6e1400e9345bC60c78a8BEf57
p25
Vpunyampat
p26
sV0x0570490d91038Bb5725B2Dadf3FE919fD517B05C
p27
VAtul
p28
sV0x71De7bcbe8F4e5C54ad7e58856C70C19CdDAb1b3
p29
VDanger Danger Creeping Closer 
p30
sV0x018Ca9B3373eE423D62f82D4eDE7E2fadFe8EeA7
p31
Vatul
p32
sV0x9407fF05df9B102eaaF935a209dC7D037BaC831a
p33
VMaddy
p34
sV0x7BdaCcE1A779A1232f1Ca3272d93Fd63c3e48F44
p35
V
p36
sV0x42C09605F6A7a0D5f28EEE57294ae00cb6939Efe
p37
Vcvs257
p38
sV0x2279e1F61524857F45Cd4A3704B623fc50Aaf23e
p39
VWhistle Podu
p40
sV0x4687193d7C4def8A36796795D7Ab865366bC0ED5
p41
Vsachin
p42
sV0xB96Ec7B19C0de269d610a2F8E12d2c25c16a1102
p43
VCH7
p44
sV0x42E918FcabB225a70db0392eaF6d80066ebCDc40
p45
VRakesh
p46
sV0x31CCEBC84B545F19fC918d34bFA96f1d5919d350
p47
VArun Singh
p48
sV0xF1f9E7Cb2581D529b1F5398f64dc76DFaa09186a
p49
VN4Narcissist
p50
sV0x23A75CCC13ea4ac7F79B3Ce822eB3200A00C4883
p51
VNavish
p52
sV0x8A219C1ae4f068b3B17a6cD7670f2AB7f78D344b
p53
VIplchamps
p54
sV0xc698F70f80aC18C9C33c7289E6CA55e8B88468D6
p55
VRandom7
p56
sV0x65b07E64cB0f55477c082a04D3446327D85b1896
p57
VMLYS
p58
sV0x4904341D8779E10d77036cc209ecfbB2a1bacB8C
p59
Vpsk
p60
sV0xB1ff063A7F26b4d5bd35369e6561b065e83a77CA
p61
VThe Sorcerers
p62
sV0xfdcE80F4ACE9723e874DF236FAdf0BFBC6598818
p63
VHemant
p64
sV0xF9C3832f73ac60e79f00337d701b4e45F8FCc0B9
p65
VChetan Sharma
p66
sV0xB768C03252a81667f60f3a8334077B2049A41412
p67
VSandeep K 
p68
sV0x2cBfbc6f2e28Bf871Fd0587fEb2278b7f51d3A5c
p69
VJkalalsingh
p70
sV0x8015B26c75686843357eDfc89C761c0fe7118CF5
p71
Vchaudhary
p72
sV0xb32009A158c558dAecbf7610E198BcB61d551BD0
p73
Vnidhi
p74
sV0x3dF89767745e7E07A281be5DB39Be37E3b625F60
p75
VManny
p76
sV0x21306b1bed3354a465B856D18D360B98821C99Cf
p77
VRohan
p78
sV0x9BcF3b641A4ff536ABf933e54d7d8bEf25C3D9f1
p79
VMavericks
p80
sV0x9F0c3Ba110E3E61761992fea58D125f601164ced
p81
VPacknik
p82
sV0x8489e3aaA2227be24C0b6708e24b5D93D9Ae6aa8
p83
VPooja
p84
sV0x44A44315d69C4AF27c76B3b5e8C11b5CC92d24b3
p85
VLogan
p86
sV0x085E946AbA16e8AD4acEC35ceE8ddf0aB3EB2177
p87
VPunyamP
p88
sV0xe243Ce7166c8A42F665D9C52429E8ddd6022F18c
p89
VTatarus pit
p90
sV0xBb99C60950F121E146BEF2F328e8c82FF077F97d
p91
VIkillz
p92
sV0x4c319522e57061247eB1f7a112b7EF1aAFA0D478
p93
VPuneriBlockChain
p94
sV0xD7550253008C72978E1074d991D097A8F97eBF89
p95
VPIJU
p96
sV0x192B41a5748F1d69f8b745a78F20f558abB988eD
p97
VTAS
p98
sV0x449857D5Fc0674a82e72e53B7C46C089C0A35061
p99
VKph
p100
s.