(dp0
V0x71De7bcbe8F4e5C54ad7e58856C70C19CdDAb1b3
p1
VDanger Danger Creeping Closer 
p2
sV0xB1ff063A7F26b4d5bd35369e6561b065e83a77CA
p3
VThe Sorcerers
p4
sV0xfdcE80F4ACE9723e874DF236FAdf0BFBC6598818
p5
VHemant
p6
sV0x44A44315d69C4AF27c76B3b5e8C11b5CC92d24b3
p7
VLogan
p8
sV0x085E946AbA16e8AD4acEC35ceE8ddf0aB3EB2177
p9
VPunyamP
p10
sV0x2d1EF08D350a5Ff4D1351b9BE26166171c967351
p11
Vnitrek
p12
sV0x0b5E606b39B9029C2e4FcED7C97B012eDBa96C59
p13
VML Hunterzz
p14
sV0x4687193d7C4def8A36796795D7Ab865366bC0ED5
p15
Vsachin
p16
sV0x9407fF05df9B102eaaF935a209dC7D037BaC831a
p17
VMaddy
p18
sV0x2279e1F61524857F45Cd4A3704B623fc50Aaf23e
p19
VWhistle podu
p20
sV0xABe03a544Efd8147CE451ceE8cCAA7E895fc400e
p21
VAnand
p22
sV0xCC8D8b086dBed45F087488E3BBb172d4fD67893d
p23
VJi
p24
sV0x9BcF3b641A4ff536ABf933e54d7d8bEf25C3D9f1
p25
VMavericks
p26
sV0xc698F70f80aC18C9C33c7289E6CA55e8B88468D6
p27
VkingsXIpunjab
p28
sV0x17664421d825760920b971327aE18E054BE92669
p29
VThamit
p30
sV0x21306b1bed3354a465B856D18D360B98821C99Cf
p31
VDemo
p32
sV0x0570490d91038Bb5725B2Dadf3FE919fD517B05C
p33
VAtul
p34
sV0x9F0c3Ba110E3E61761992fea58D125f601164ced
p35
VPacknik
p36
s.