(dp0
V
p1
VSanidhya
p2
sV0x6ba33fD3cC075D71C48597dF69278FFa3597a4F5
p3
Vsuperman
p4
sV0x3C1C5a4Fe2a20B0702426f3580A01F8212b94Ae1
p5
VRandom7Killer
p6
sV0x87F65dE25f8193Df60c7AC39B9e4b8e3431f42CC
p7
VHimanshu Hansaria
p8
sV0xEda93DC926901Ce34D8603d61Ed0D22B2198b515
p9
VMlp
p10
sV0x20e7DB048A799b34eDE83A8431033AdCF5eF1c6b
p11
VRailSplitter
p12
sV0x93EA5285074924ce6A1aC16036a7B6DD75F81947
p13
Vthegodfather
p14
sV0xaC53520Ffe2072398001AE05d7e7C9f850280a70
p15
VCSK Fan
p16
sV0xaE79A0D2D08c685028F7645eA61015bC108D869e
p17
V@Garib_Insaan
p18
sV0xf058629952eB3Ef5229920d267cB48c3Ef55aCeC
p19
VProthit
p20
sV0x21b5357d0bF687843aDeEA7e80C6477053c46c17
p21
VRandom7
p22
sV0x73E6d0879f3A796E9a407671B4329b60f2700fb4
p23
VSumeet Kataria
p24
sV0x7Ce21fd6242CD7E5Ffc23b2E3cdd9931Bf7f4738
p25
VSagar 
p26
sV0xf1bcf80709A8efBBc6134d3055Ae2cB778fA7700
p27
VPranshu Topal
p28
sV0x77C61D5Df8759cef69DB539f88BD014ab2C10440
p29
VRupeshKirmirwar
p30
sV0x10114bDd7E248054cA7d3ecA3683190314A40F7c
p31
VSupport_PP
p32
sV0xcfBDd39564799834a8AA02c6A90E2631A432CA66
p33
VKrishna Bellary
p34
sV0x3Bd5C646710cf996Ad67e833f2d9b923132046dc
p35
VPRAGATI S
p36
sV0xCA53E00624629faB26d6cd42a6F48AF9193fEC2D
p37
VNeeraj-build
p38
sV0x866C9eCf5d2cbf8D897B2944eEAFAbBceA50A668
p39
VSupport2 sb
p40
sV0xc6cA21f937ad48439d9F64052568687e5446c603
p41
VCoolrider
p42
sV0xC8fdB5370311Aa266A4Cd5253Bf3100fdb5Ec873
p43
VMOHD AQUIB
p44
sV0x0057B9A188Aaf10FB2004D85a883090Db7B11B22
p45
VRamdon007++
p46
sV0x720D0c0F3Fe0803E69832ae12CdF424212D63B42
p47
VAtul Sharma
p48
sV0x19FBBD48AF979f2De242E488a84257D29bD15cBF
p49
VPramod
p50
sV0x81c08AfCe9c26A8E97acEF91969610d07a03d527
p51
VSorcerers Reloaded
p52
sV0x5064330c99e737ED72F754c1F5630B6eBb2780F3
p53
VAayush
p54
sV0x2296882Df3eEb541BDbA55C1a5895dB99b53881C
p55
VPrajakta
p56
sV0x9c4FaAdde73EFB3b8c64a882B0E1410Cf7eE1791
p57
VRavi2 Sharma
p58
sV0x46A224e7A96025FE6aF457B18D1D240FdE47258b
p59
VChetan sharma
p60
sV0xCFa820A77c50883805497988ee02faAA866ed68F
p61
VAladdin
p62
sV0x7CE50118BBc4208df6c6127bDe4560e44C04bf59
p63
VVirendrasinh Gohil 
p64
sV0x28C8870D00613fA4891786f7b7aBE0A6554fDc16
p65
VTanay Mathur
p66
sV0x620500fa7efe7FF3a67DD6ffcE73d0f82d19f056
p67
VIPLKiAAG
p68
sV0x82361Ac015A000066C051B1A4f3407C8e946918a
p69
VAarti M
p70
sV0xA7939BfB7f6eB24400089B4E15fFA41cBAc39E00
p71
VPrajwala Srivatsa
p72
sV0xF02739da192006d4F6b089fA839262938d4337ac
p73
VPrashant Gupta
p74
sV0x34d468911b35972135bE8FcE696844213699aB00
p75
VKrishna
p76
sV0x7B1bd3b475ACA7E38CCa1615a7e631c3D36Be838
p77
VAksS
p78
sV0x652e530Bb721a5A964359148CB415E38C3A8B655
p79
VRajesh Gawade
p80
sV0x0C00959b7Fac6af348c471951EfAE148Bc182E70
p81
VShunya
p82
sV0x70c4e74799290b858B9E5D95673D134a5e94E90C
p83
Va_m_a_n
p84
sV0xE59156Be85ece7983511A6F8019525Eadc03c3aA
p85
VYogiDon
p86
sV0xe843276995787945BC9aac386f152a3c9189EC6f
p87
VRavi
p88
sV0xc5d52c225AF6779994A324126967763Dc9E1c1A3
p89
VTushar Patil
p90
sV0x8917A4FF8F99470B9414E49735E194Fb6884da22
p91
VAkshay Sukhija
p92
sV0x7880C5d71ffb66E27a9898bBA510F53458503C4d
p93
VChirag Kankariya
p94
sV0x0505E52b2F1739AbBC9fEa385Ba9f04b7a9597Ac
p95
VJignesh
p96
sV0xa442BADE1Fc599c28C83e0f73Acb51e9DeBAf37F
p97
VJyoti singh
p98
sV0xb2b285eC627640388BE46c19178b04C663f2f68A
p99
VOmkar
p100
sV0xa9C6C76831ff76C77EAb9507eD1B177A95895B75
p101
VShunya_Reloaded
p102
sV0x2841d0429E7D8a2a2Cfb47f06A4c9E3EfceD01b2
p103
VChacha
p104
sV0x51859A271e9ff4D54fC39C17693F1727627F0865
p105
VAlphaGoShunya
p106
sV0xcC80f86422D9ee4082d1Dcec7014722c493315f8
p107
Vsiddharth
p108
sV0x79E565fD0FD376818Ae086FC25da448a2FF18Ddc
p109
VAvinash Jedhe
p110
sV0x65d9Be87b91f047A570e3d22b2A683B81E5Bdc8C
p111
VAnand
p112
sV0xA2F4dEa89C0AEa2B9d052510ad6338688AA3d3ec
p113
VHarshada
p114
sV0x4C92ad293E2ff846FfA6dBb9599b24Ef7910Ae5B
p115
VTS
p116
sV0x5D9fD8620B95A51c33868f408Db70D6BC39CFEC7
p117
VGirish
p118
sV0x575c22123D9845A222f23E988d45A485AaA25ecf
p119
VPraveen Shamlal Kithani
p120
sV0x7e1Cbee4b0300399BacC1ADeA2D84d4A039f14bc
p121
Vjkgb
p122
sV0x767e495a644B3402C4793E2A90CAddEe00841651
p123
VJi
p124
sV0xAC924217A6e7a09E9B335068B64Fc441819A192c
p125
VKunal Maheshwari
p126
sV0x292A088780513e080aa74Bb080961407f356538A
p127
VSudhir 
p128
sV0xedeCDe2E86B08226A934d105C77C96768FCfbF60
p129
VFlash
p130
sV0x73D8273170497Ec1A2039C15B9E1d1B07F9D0AA3
p131
Vml junky
p132
sV0xe536f98B93813Ec99412836a464dD9894831bF7e
p133
VArks
p134
sV0xc3C06b7F4a5bFC265449b43170df5a0d26bdDc47
p135
Vanthony
p136
sV0x20A249c969cE74C8F9A3Fe1B8192fC7428f7CAc6
p137
VShwet Ketu Haritas
p138
sV0x4688cDaD56684CAbE81ee6A995656E21Bc6F4c2d
p139
VPrasun Pande
p140
sV0xC6eC9aa1935c31c98273F6366fe7B49511bC5CB9
p141
VPrachi
p142
sV0x0Ea7DaBBD4CB4557b87AFbC5170047881318049F
p143
VShubham Thakur
p144
sV0x9dc10fEfAf98c5CE740279B57C03210Be4F2772C
p145
VLights
p146
sV0x7103209f00BDe90DFabbe17b13Ac0836554326b1
p147
VXYZ Prediction
p148
sV0xd43f53143EE0f169B3Ead8cdA588B0583F13C548
p149
VRavi Sharma
p150
sV0x4857B97feb1C94cC0fE72390deE4aB052df66107
p151
VTwentyashes
p152
sV0x09abDeB06799bf6a66121de92e441b2643E6F72E
p153
VRohit Srivastava
p154
sV0x164732a3fcF8b36dAD8C6bfD11918c56b1A54c3b
p155
VKiran
p156
sV0x783a2Ad0889E8F9189323386936Beebb50BDDEC7
p157
Vpankaj007
p158
sV0x7F281966076Fd1404c07C62f96C9983589eEDF4D
p159
VSneh Mujoo
p160
sV0x92677df12afAC77CF0ac2E1879E81038bd37C22F
p161
VNeeraj Kumar
p162
sV0xaDF23BcdF9cb4f04111fB8D8583500644fD5f51c
p163
Vipljunky
p164
sV0x7EAC48004C99cf5479f81B93eD031c74ee556883
p165
VML YUV SENA
p166
sV0x51a9C63EBAaB4b5735617FA4cc05e7cD82D83BC4
p167
VSanidhya 
p168
sV0x9756005A3200f04b09b27509826224f737069Aca
p169
V@zawarm
p170
sV0x2cc704077Ef0DfaED6b5C0af65D44558d26B25e1
p171
VDipendra
p172
sV0x7C8d9f3D0E45214DAFa248BcBD0eD147fC9a82Bd
p173
VMachineBeast
p174
sV0x1346C1876553f817ACB9AC35c4f522CBF9Ec2e15
p175
VoKtopus prediKtus
p176
sV0x0b8b6fE573aF299684a0990f90Da330F683A7C61
p177
VMSK
p178
sV0x1F33D43e6D5197Fd63dDC6770C227B34F3602496
p179
Vak2605
p180
sV0x44d48FDE5E5f1116490B6D9C549AA8be3924b2e5
p181
VSomesh
p182
sV0x80d2c90B8C31F6eEEA31adEe76D72B188F96D061
p183
VNiraj Diwan
p184
sV0xD5cC71CB870747A6AB4dEF661D5CCa7bbd1404a3
p185
VKunalG
p186
sV0xb01b05b3408070dA647fBB606E4C71B6D123a06d
p187
VBhalchandra Joshi
p188
sV0x989D9eF2E5BeEDf7A16aF66E45993B496d90B884
p189
VWingu
p190
sV0x3d686b21214ebe8A2663E1824591c64a63Ae1075
p191
VJerome
p192
sV0x314Da668b2e2618C7590248C3FE36D695925b2c4
p193
VAdmin_PP
p194
sV0x75D1E6656B36bB4f4136176BC5e6e0A26BDF5fbF
p195
VKiran Kumar Pabboji 
p196
sV0x8C5B4d31920435B6d0b9C49893675b920970ff60
p197
VMohit Gupta
p198
sV0xB8Cbc5f706Ca4eFbd0eC52FF6a3e89d7b1DCEcCB
p199
VAnanta Prasad Kabi
p200
sV0x59Bc74C56D9c6D5247e889245b7df199344Ab45C
p201
VJeet
p202
sV0xF2AF2FfBc98835939c76ece062716E9e3305281A
p203
VAustin
p204
sV0x044c3f4F5a30249d91384047b70B9Bb99E43B093
p205
VMangesh
p206
sV0x25dC0e5A62f349Ae07529afBEbd1e57C153f0Eaf
p207
VRohitRas
p208
sV0x1aF71b29DF3C39dd2B17E308D2852bDef13AEE04
p209
VSrikanth
p210
sV0x5F66bE2290E9C1cdce674C9d78F660E0fB2bd743
p211
VVandana Jindal
p212
sV0x48191c9860d21528b24188b2d0415b3D0145Fc1E
p213
VAnurag
p214
sV0x2e37E44e598A7E34F94C4A6E36160956293812e6
p215
VChaitanya
p216
sV0x017c3F810c4Ca10b623F5FF09FaAEd5E3B058d69
p217
VJeromeML
p218
sV0xCDc63E739aCD3b483b3e7cA1A70f794fB86BdAaD
p219
VMatrix
p220
sV0xA2c3dD5333c9B01B956AC3D0566Dc8a8e8a0f39F
p221
VVinay Takawale
p222
sV0x478E12D50970071047814aeEA70a8402968822EA
p223
Vsanro1
p224
sV0xF75d468AC8833b6c8AA1B3138C0A79F1F2968f09
p225
VAvik Chakraborty
p226
sV0xF5f5BbE82129002dDF5527CD138e10F1A46301Ca
p227
VPacknik
p228
sV0x9e93197e6f19c5e0654d3243c15e844f6a66d742
p229
Vsachins
p230
sV0x029519Ef06951FD94132C03BA8c3e2548f281e83
p231
Vjb202038
p232
sV0xdC757B4b5f6E4A6f9110BeF60D6b1dCEFcee1C58
p233
VTanvirs 
p234
sV0xd8C3F67F3F62baD979afbF2Bcc8dce3d7F305bC7
p235
VSarang Chauhan 
p236
sV0x2d1EF08D350a5Ff4D1351b9BE26166171c967351
p237
V#DilSeMI
p238
sV0x051e6A6d93b09aeaAeEdaC7C59c865B5E9E6adab
p239
VVandy
p240
sV0x036899047Ca411AaBAfF8b7EaDCc2224d0730877
p241
VRabi Patro
p242
sV0x727A6f38be1A5a532De9c1839BcFBa719F4eA231
p243
VShirishT20
p244
sV0x12883267298A5666e68e1379Fb99DEc591b2C700
p245
VKAMSY
p246
sV0x57d05FED913088194460894Dcc4Cb31F0A5671c0
p247
VNikhilesh
p248
sV0xc76f3c91f628C93b4a8F7ba10c649Fc90bd7997F
p249
VRam
p250
sV0x71F70e7e5b62dca763e84062E26c976E1D33a49A
p251
Vmohitml
p252
sV0x9C30d6B023A0374262f7C7eB37C5ee3bD1257310
p253
VAbhijit
p254
sV0x698DbF061d643c5d103f4f2E82F7d314777D432f
p255
VVivek Gorwadkar
p256
sV0xEB5aE75Cb9A623EFB761d78fC9427b785D99bC1B
p257
VML Yuva Sena
p258
sV0xb81E269F5D2658eF5B1c74FEE7A69F1Fb1a85043
p259
VPrabhat
p260
sV0x377992166266E2DdA97CBd3f46B9952A34aCEce4
p261
VAkshata Raikar
p262
sV0x4687193d7C4def8A36796795D7Ab865366bC0ED5
p263
VAdmin_SachinS
p264
sV0xb4a0Fb49de160Eb8BE526c0a0bC64363cf9f6CB0
p265
VGame Swingers
p266
sV0x9954De08fE189b4637527848E1b3465596037D9b
p267
VPankajk
p268
sV0xBD521485B66510F2b06bD2696EB2Cb0F39f7a6FC
p269
Vrahulsingh
p270
sV0xa5Fae895E251A4084861Ab3FFbB03089eBc04e96
p271
VVJ
p272
sV0x01e491E38A14Ebd7E6419F5581762CBEc8260F52
p273
VLalit Mohnani
p274
sV0x4890272E8D3E9faB32B9FDe829235A6d16b93E7a
p275
VSagar Deshmukh
p276
sV0x107ab29EF6432b2FF5a22FFC9dBF832305dD2Ce3
p277
VProthit Majumdar 
p278
sV0x4806639B1186EDfb9F3a3656Ed4122F1220509e7
p279
VSanyam Shrivastava
p280
sV0x94Fb1f84f486FA517A07e46cc8977cd37f33F493
p281
VWillSmith
p282
sV0xdDe4Ef25E0A5c4A17c8f71eF702c7AF9aE66DBCe
p283
VKushaltikmani
p284
sV0x97319b747Eb20Fcf43A7bdF221Fe8eD7D0759D65
p285
VResearch Machines
p286
sV0x5E6EE60b2993466Dbec095e26D5227c832A47Eb6
p287
VJadu
p288
sV0xa603D25D9C2318BAAB38621BD66227dc142c84BC
p289
VSuvit
p290
sV0x1BdB1300383d942Bb7133D02C1B63135C6E90F5c
p291
VAnkit Saraf
p292
sV0x3D1541B00bB2FA515a45FB323f186aF388dEDaEE
p293
Vchawkidaar
p294
sV0x6C4E19b45398057DBE16EEC5f04a836f71b65aDC
p295
VOptimus prime
p296
sV0x9b4db6D7eB0a4fAdE4cD9b1059A7f3780B7aF9eB
p297
VArpit saxena
p298
sV0x70Ae23dB2a3D42c920910A2BF2a658B3ce0fD047
p299
VPehchaan Kaun
p300
sV0x3eE2Ccd95558dD586489972f9b1Ba06D8eE083b5
p301
VPappu
p302
sV0xa75A66f0B029979189F75E0D2fa4B51704Fcaf93
p303
VKaram
p304
sV0xc5B197716f8bC0840D7D7034EF577b643A5Ee436
p305
VPratyush
p306
sV0x328A8868f05139bb93e869Cb0F345e1D5B344f58
p307
VIksha
p308
sV0x6A7141A7728fa43568271823CAd7719C2877438E
p309
VGajanan
p310
sV0x3A14C421F313fb944158D703cAF74aAb8A5a069d
p311
VAnkit jain
p312
sV0xBaA31ae408108A615bEBBDD414AA39E0d1634395
p313
VVarun samant
p314
sV0xC36098a91A3bD50eC4A4cD94812A84B22BaC3017
p315
VAdityaadiraju
p316
s.