(dp0
V0xF02739da192006d4F6b089fA839262938d4337ac
p1
VPrashant Gupta
p2
sV0x9e93197e6f19c5e0654d3243c15e844f6a66d742
p3
Vsachins
p4
sV0x4687193d7C4def8A36796795D7Ab865366bC0ED5
p5
VAdmin_SachinS
p6
sV0x314Da668b2e2618C7590248C3FE36D695925b2c4
p7
VAdmin_PP
p8
sV0x93EA5285074924ce6A1aC16036a7B6DD75F81947
p9
Vthegodfather
p10
s.