(dp0
V0x3eE2Ccd95558dD586489972f9b1Ba06D8eE083b5
p1
VPappu
p2
sV0x0b8b6fE573aF299684a0990f90Da330F683A7C61
p3
VMSK
p4
sV0x7B1bd3b475ACA7E38CCa1615a7e631c3D36Be838
p5
VAksS
p6
sV0x77C61D5Df8759cef69DB539f88BD014ab2C10440
p7
VRupeshKirmirwar
p8
sV0x4687193d7C4def8A36796795D7Ab865366bC0ED5
p9
VAdmin_SachinS
p10
sV0x20e7DB048A799b34eDE83A8431033AdCF5eF1c6b
p11
VRailSplitter
p12
sV0x93EA5285074924ce6A1aC16036a7B6DD75F81947
p13
Vthegodfather
p14
sV0x12883267298A5666e68e1379Fb99DEc591b2C700
p15
VKAMSY
p16
sV0x9e93197e6f19c5e0654d3243c15e844f6a66d742
p17
Vsachins
p18
sV0x314Da668b2e2618C7590248C3FE36D695925b2c4
p19
VAdmin_PP
p20
s.