(dp0
V0x56Af097752628ebA77980Cf2e704dCb29281B993
p1
VVishwasb
p2
sV0x6ba33fD3cC075D71C48597dF69278FFa3597a4F5
p3
VShaktimaan
p4
sV0x5ad87d6dC529D20f13AAB3dd17c28B1798DD843c
p5
VBS
p6
sV0x085e946aba16e8ad4acec35cee8ddf0ab3eb2177
p7
V5
p8
sV0xa63A91EEFc809460350b8cf2800efC2837F85ba8
p9
Vpankaj
p10
sV0xd31c5Ff2216f4d139C05Be34C53eCcEb629d3280 
p11
V9
p12
sV0xd5fce01f55CA5c068fa08f0B0Dcf05c2Afa8DFa7
p13
VJCB
p14
sV0x437737D6f1366Fb13f3cdaC14cC6a2429d2A0355
p15
VIpl-prophecy
p16
sV0xABe03a544Efd8147CE451ceE8cCAA7E895fc400e
p17
VAnand
p18
sV0xBb7ee534c7B6fF0A62D3ef513Fa7152c4c28f255
p19
VSmita J
p20
sV0x8A219C1ae4f068b3B17a6cD7670f2AB7f78D344b
p21
VIplchamps
p22
sV0x923D23a04bd10918Cb3a5da19adDf4eB26a8F646
p23
Vmanas
p24
sV0x9407fF05df9B102eaaF935a209dC7D037BaC831a
p25
VMaddy
p26
sV0x7BdaCcE1A779A1232f1Ca3272d93Fd63c3e48F44
p27
V
p28
sV0x9a07244CC971aE04f6884f7a11E85DB37238c64A
p29
VPratyush
p30
sV0x950dC7c64A66b86c4d060D4957bd62eD524B8DB1
p31
VAbhiKulk
p32
sV0x42E918FcabB225a70db0392eaF6d80066ebCDc40
p33
VRakesh
p34
sV0x5C5B3612D03f73bF14132BEBe46FD8c0e12C64FF
p35
VSkull
p36
sV0x9BcF3b641A4ff536ABf933e54d7d8bEf25C3D9f1
p37
VMavericks
p38
sV0xc698F70f80aC18C9C33c7289E6CA55e8B88468D6
p39
VRandom7
p40
sV0x4904341D8779E10d77036cc209ecfbB2a1bacB8C
p41
Vpsk
p42
sV0xfdcE80F4ACE9723e874DF236FAdf0BFBC6598818
p43
VHemant
p44
sV0x2cBfbc6f2e28Bf871Fd0587fEb2278b7f51d3A5c
p45
VJkalalsingh
p46
sV0x6B73B8A771A8428DB29dFd0C5fEF6f143EE21218
p47
VDeep Minds
p48
sV0xD213a31ac1D75A17f47461597488dDb83096Ab0A
p49
VSanky
p50
sV0xb32009A158c558dAecbf7610E198BcB61d551BD0
p51
Vnidhi
p52
sV0x91902e5771b82225b7833d8b9FFbc85B3108623B
p53
VShekhu
p54
sV0xcd631915f9bC8F66bDc721273C070c07e1852dE1
p55
VDJ
p56
sV0x21306b1bed3354a465B856D18D360B98821C99Cf
p57
VRohan
p58
sV0xCa7471d8F897cdaf2fd9294B13D20E5669650AD0
p59
VIMHSAR
p60
sV0x7b2B9dAE510f3027F23A2A94E0f013F454b7989f
p61
Vaad
p62
sV0xd11638EA7f93Cf8050a0feD19b9E3546563557FD
p63
VPredictors
p64
sV0x02F9eb0C885cA44f95A737574b2eFfD0eabd4052
p65
VSikander31
p66
sV0x536FDa0763e8f1dB863B7Ed795750D897F722090
p67
VSagar Pawar
p68
sV0x627306090abab3a6e1400e9345bc60c78a8bef57
p69
V6
p70
sV0x6bACFD81f5C6B99494353Ba12199893b26E83941
p71
VGame Changer
p72
sV0x104e7CbB9ff327Fd6E17F801CF81AE6403C1d280
p73
VArchit 
p74
sV0x3305e1D53d235b719D0A267d1fB6d699bB0E1C10
p75
VMakAarti
p76
sV0x5f21A736CFf6E68B72F8027998d9CCcf15505dAc
p77
VRavindar
p78
sV0x9DD4D7aDd63637Eb05f5Fc18E6F11F9376ee6AD8
p79
VThe Sorcerers !
p80
sV0x466065CbA08a766B2B71B48a6CbCa88908817351
p81
VAnkit
p82
sV0x17664421d825760920b971327aE18E054BE92669
p83
VAmit
p84
sV0x26e477AB2cBB1EB9cd163f800C0DC8274071eaFA
p85
VScorpion
p86
sV0x7b4f86bCa56890108fA4a9FCd0c1dD119967a3B9
p87
VSamyoo7
p88
sV0x42C09605F6A7a0D5f28EEE57294ae00cb6939Efe
p89
Vcvs257
p90
sV0xe23D42F84471465e79Fa20854454bdcc96784722
p91
Vamol1122
p92
sV0xB768C03252a81667f60f3a8334077B2049A41412
p93
VSandeep K 
p94
sV0x68C1F10e980db565e9B9F6a1E12f178096e09426
p95
VAflatoon
p96
sV0x1cc6D119B8E5d41995D9C9F2210c7997A9C155A8
p97
VCheetah
p98
sV0xD7550253008C72978E1074d991D097A8F97eBF89
p99
VPIJU
p100
sV0xB9664a7b25c65Ea49e0547540CCa84610dcF3865
p101
VITBackbenchers
p102
sV0xCCbeA5EDB29984D4F3D559167FE7f2b51A1142EF
p103
VKunal
p104
sV0x580e25f036936b84723d677d74757d76d7b32aaf
p105
V7
p106
sV0x8015B26c75686843357eDfc89C761c0fe7118CF5
p107
Vchaudhary
p108
sV0x7795270c89d522189272e5EE418B613f7f2F86F3
p109
V3EyedRaven
p110
sV0xec3677d8b6de530Fcf830A59f03397e2005dFa27
p111
VonlyAbhinav 
p112
sV0x3dF89767745e7E07A281be5DB39Be37E3b625F60
p113
VManny
p114
sV0xe193717dbdB9f1d92C8B7Fbac8D68bab92cb85b4
p115
VIplpredictor
p116
sV0x90F2bc9aB0e246648da97AE60a2cf5Cc6eD19F5a
p117
VRoyston
p118
sV0x8489e3aaA2227be24C0b6708e24b5D93D9Ae6aa8
p119
VPooja
p120
sV0x7D9a5C0BD2eE7a7E63f0BBF2D09267c411B5d299
p121
VNikhil2705
p122
sV0x085E946AbA16e8AD4acEC35ceE8ddf0aB3EB2177
p123
V8
p124
sV0x3F2032718DfC65d64c0c21b1Cc9c4E0c7EAB9ae1 
p125
V11
p126
sV0xa9861c680ac3613b2F0864C867A156b7214Dd771
p127
VPravin
p128
sV0xd35cd516Bd52d839B1c859b8448fDa13490e2A35
p129
VLalit1548
p130
sV0xBb99C60950F121E146BEF2F328e8c82FF077F97d
p131
VIkillz
p132
sV0x02E55D8e0EE5ebe62434181B0Bd15f8BF10b5BF6
p133
VGsunny
p134
sV0x65b07E64cB0f55477c082a04D3446327D85b1896
p135
VMLYS
p136
sV0x1Fe7877f99C39898C40A6DFc0cB06F346443cBB5
p137
VNare10
p138
sV0x700B3D909dE039f330cc3Be7a022C28662E0fe87
p139
Vvarun_vj
p140
sV0x0035BaF4C977838EAD3522e2163bD60fd8649fa2
p141
VHORIS_RETURNS
p142
sV0x7d6393Aa87b4ac3427D7357953b20c7826E27d02
p143
VNovice
p144
sV0xC0794D3570ef34813c59F7C43D7b4C7Ac5073E1C
p145
VSRK
p146
sV0xCC8D8b086dBed45F087488E3BBb172d4fD67893d
p147
VJR
p148
sV0x0341a6CaA5cbD4230F758D6f74F3F270DE0D6191
p149
VMSK
p150
sV0xc661f5b8A21e3Aec0301240Cdc360D27967493A6
p151
VSnehMujoo
p152
sV0xeADf3aa1d903fcB3d499BB3b6AE94FEa86556c73
p153
VShip
p154
sV0x57c6Cb5683FF474Ff425E40b60eF76540470916b
p155
VPramod
p156
sV0x018Ca9B3373eE423D62f82D4eDE7E2fadFe8EeA7
p157
Vatul
p158
sV0x3F2032718DfC65d64c0c21b1Cc9c4E0c7EAB9ae1
p159
V12
p160
sV0x2279e1F61524857F45Cd4A3704B623fc50Aaf23e
p161
VWhistle Podu
p162
sV0x9698cd9BE5d0773F1bf3E0E572DA2aAA9008DEF4
p163
VAshish Joshi 
p164
sV0x69cF0DeA7806A9A52798dC2CfDE44A5EE4ec481b
p165
VThe Predictors
p166
sV0x0de75Cdef165c8BF091D22D7f93f5A59BB8C5f6b
p167
VKrishna 
p168
sV0xD3fFcE67293C2bA0521F4BDa4D2d9459063E1766
p169
VHorisReboot
p170
sV0xF1f9E7Cb2581D529b1F5398f64dc76DFaa09186a
p171
VN4Narcissist
p172
sV0xc82f26AeE9b7C72E401103D0182c95C0C1178730
p173
VTusharpatil
p174
sV0x25D0A3c8253a4393c6286Bb1563FF8Bd2F5C4071
p175
VThe Jolly Cricketer
p176
sV0x029519ef06951fd94132c03ba8c3e2548f281e83
p177
V3
p178
sV0x1b6573Fd25887F6b4601915f3AE684f5c6a603CF
p179
VMachupiccu
p180
sV0x353a7d17651bb6746ae4fb774b0a7fda5775c5b7
p181
VArchit
p182
sV0x6c30Cd77e6f4799201A7B97b1Bb7754Dcd5F8196
p183
VJT's Team
p184
sV0xFd801F94aeD84EaefAdFB5c2ACe77D54E368806E
p185
VDivyaIPL
p186
sV0x4c319522e57061247eB1f7a112b7EF1aAFA0D478
p187
VPuneriBlockChain
p188
sV0xAB42Aa9287BeCC40F3e7F4149362dB6D65C7B52a
p189
VSushantm20
p190
sV0x5296685B3d0EBDcE47cfbC437e7E9682D58571FD
p191
VSTRICKERS007
p192
sV0xdC376B1119761c785D6D899E1a9ff200b3150288
p193
VRaka
p194
sV0x568A5c518f0DA943756163214149Af4cD52232F3
p195
Vravindra jain
p196
sV0x029519Ef06951FD94132C03BA8c3e2548f281e83
p197
V13
p198
sV0x2435cb7F131BfDB1797B00D5E767C00327F3DC2D
p199
VAala re
p200
sV0x554f8719c9F7a402bA6cd6CC62853ee79170979c
p201
VDivyaIPL2
p202
sV0x2d1EF08D350a5Ff4D1351b9BE26166171c967351
p203
Vnitrek
p204
sV0x0b5E606b39B9029C2e4FcED7C97B012eDBa96C59
p205
VML Hunterzz
p206
sV0x8D45C2acc0A582CB31baa6BAa761aDE7173c3B7A
p207
VChet
p208
sV0x8Eb7B5e80dC8D74fb309Ff4de81aB9cA54271A21
p209
VThePredictors
p210
sV0xa56ae14521Aea1e895042cCe419Ad46a4BED9eBF
p211
VShilpa
p212
sV0x0570490d91038Bb5725B2Dadf3FE919fD517B05C
p213
VAtul
p214
sV0x71De7bcbe8F4e5C54ad7e58856C70C19CdDAb1b3
p215
VDanger Danger Creeping Closer 
p216
sV0x306D91d6F8672214D13e2533090f8A98A150aebD
p217
VRJ
p218
sV0x48693753de326661854077C314E90c80081C1df3
p219
VBhayankars
p220
sV0x4687193d7C4def8A36796795D7Ab865366bC0ED5
p221
V2
p222
sV0x23DF4df8F639CC846A15839f721B50fEccd843d5
p223
VWarrior55
p224
sV0xB96Ec7B19C0de269d610a2F8E12d2c25c16a1102
p225
VCH7
p226
sV0x31CCEBC84B545F19fC918d34bFA96f1d5919d350
p227
VArun Singh
p228
sV0x23A75CCC13ea4ac7F79B3Ce822eB3200A00C4883
p229
VNavish
p230
sV0xa20C66485296f1Dc0667c78Ad57D0ED2455bFa41
p231
Vsanjayr
p232
sV0x7B1534F6e3aab1CF8Bb5718aB2010efCB928Eb5A
p233
VOnboarding Super Kings
p234
sV0xB1ff063A7F26b4d5bd35369e6561b065e83a77CA
p235
VThe Sorcerers
p236
sV0xF9C3832f73ac60e79f00337d701b4e45F8FCc0B9
p237
VChetan Sharma
p238
sV0xd31c5ff2216f4d139c05be34c53ecceb629d3280
p239
V4
p240
sV0x31548Ae0ca7969720f59d9e4f5B926abA255BaBf
p241
VRS
p242
sV0x7a25db56677de938f85696f35b3fe89a80be534e
p243
VMac
p244
sV0x6C8d9AcECCC0C718e416AF0221d73C28c0E2B7aC
p245
VDoremon
p246
sV0x449857D5Fc0674a82e72e53B7C46C089C0A35061
p247
VKph
p248
sV0xCFC4A9c2d4D0EE56e2f3e236edf75c391e6C0076
p249
VMahi
p250
sV0xDD8c4AE29Def9DB47714e32058A1CA5D51de4940
p251
VSachin D
p252
sV0x1E54624FcC6f645c0B4c60BB01b9ceD9b059eEC4
p253
VTushar
p254
sV0x44A44315d69C4AF27c76B3b5e8C11b5CC92d24b3
p255
VLogan
p256
sV0x9F0c3Ba110E3E61761992fea58D125f601164ced
p257
VPacknik
p258
sV0xe243Ce7166c8A42F665D9C52429E8ddd6022F18c
p259
VTatarus pit
p260
sV0x0518cdb9d6598BCB354B13A67Bbe20Fe2923b779
p261
VSupriya2805
p262
sV0x7588f3544607ca636cF83446Fd746E1fd2B10fC7
p263
VAyu
p264
sV0x511Add398d85FD5E7382210B2DafE07B248bd9e3
p265
VRomesh
p266
sV0x192B41a5748F1d69f8b745a78F20f558abB988eD
p267
VTAS
p268
sV0xa55096ac1B655940db863ab606621CE0F4bcb581
p269
VSvbipl
p270
sV0xd31c5Ff2216f4d139C05Be34C53eCcEb629d3280
p271
V10
p272
s.