(dp0
VTanay Mathur
p1
VTanay Mathur
p2
sVAarti M
p3
VAarti M
p4
sVipljunky
p5
Vipljunky
p6
sVMangesh
p7
VMangesh
p8
sVSarang Chauhan 
p9
VSarang Chauhan 
p10
sVWillSmith
p11
VWillSmith
p12
sVChacha
p13
VChacha
p14
sVsiddharth
p15
Vsiddharth
p16
sV@Garib_Insaan
p17
V@Garib_Insaan
p18
sVKiran Kumar Pabboji 
p19
VKiran Kumar Pabboji 
p20
sVthegodfather
p21
Vthegodfather
p22
sVHimanshu Hansaria
p23
VHimanshu Hansaria
p24
sVNeeraj Kumar
p25
VNeeraj Kumar
p26
sVTanvirs 
p27
VTanvirs 
p28
sVAdmin_PP
p29
VAdmin_PP
p30
sVVarun samant
p31
VVarun samant
p32
sVanurag singh
p33
Vanurag singh
p34
sVMOHD AQUIB
p35
VMOHD AQUIB
p36
sVAksS
p37
VAkshay Sukhija
p38
sVJyoti singh
p39
VJyoti singh
p40
sVKunalG
p41
VKunalG
p42
sVPrashant Gupta
p43
VPrashant Gupta
p44
sVKunal Maheshwari
p45
VKunal Maheshwari
p46
sVak2605
p47
Vak2605
p48
sVChaitanya
p49
VChaitanya
p50
sVDipendra
p51
VDipendra
p52
sVPrasun Pande
p53
VPrasun Pande
p54
sVSupport2 sb
p55
VSupport2 sb
p56
sVAtul Sharma
p57
VAtul Sharma
p58
sVGirish
p59
VGirish
p60
sVSuvit
p61
VSuvit
p62
sVChetan sharma
p63
VChetan sharma
p64
sVPranshu Topal
p65
VPranshu Topal
p66
sVRandom7
p67
VRandom7
p68
sVShunya
p69
VShunya
p70
sVRupeshKirmirwar
p71
VRupesh Kirmirwar
p72
sVRamdon007++
p73
VRamdon007++
p74
sVVirendrasinh Gohil 
p75
VVirendrasinh Gohil 
p76
sVPramod
p77
VPramod
p78
sVChirag Kankariya
p79
VChirag Kankariya
p80
sVRohit Srivastava
p81
VRohit Srivastava
p82
sVAdityaadiraju
p83
VAdityaadiraju
p84
sVAdmin_SachinS
p85
VAdmin_SachinS
p86
sVSagar 
p87
VSagar 
p88
sVMatrix
p89
VMatrix
p90
sVXYZ Prediction
p91
VXYZ Prediction
p92
sVShubham Thakur
p93
VShubham Thakur
p94
sVsachins
p95
Vsachins
p96
sVKAMSY
p97
VKamlesh oswal
p98
sVAnurag
p99
VAnurag
p100
sVAnanta Prasad Kabi
p101
VAnanta Prasad Kabi
p102
sVSneh Mujoo
p103
VSneh Mujoo
p104
sVAlphaGoShunya
p105
VAlphaGoShunya
p106
sVProthit Majumdar 
p107
VProthit Majumdar 
p108
sVNiraj Diwan
p109
VNiraj Diwan
p110
sVShwet Ketu Haritas
p111
VShwet Ketu Haritas
p112
sVShirish
p113
VShirish
p114
sVKrishna Bellary
p115
VKrishna
p116
sVVivek Gorwadkar
p117
VVivek Gorwadkar
p118
sVNikhilesh
p119
VNikhilesh
p120
sVGajanan Lokhande
p121
VGajanan Lokhande
p122
sVArpit saxena
p123
VArpit saxena
p124
sVLalit Mohnani
p125
VLalit Mohnani
p126
sVKiran
p127
VKiran
p128
sVRavi Sharma
p129
VRavi Sharma
p130
sVPrachi
p131
VPrachi
p132
sVMSK
p133
VMangesh
p134
sVIPLKiAAG
p135
VIPLKiAAG
p136
sVAkshata Raikar
p137
VAkshata Raikar
p138
sVsanro1
p139
VSanjay Rokade 
p140
sVPappu
p141
VAvishek J
p142
sVRailSplitter
p143
VRailSplitter
p144
sVsuperman
p145
Vsuperman
p146
sVAvik Chakraborty
p147
VAvik Chakraborty
p148
sVSorcerers Reloaded
p149
VSorcerers Reloaded
p150
sVGirish 
p151
VGirish 
p152
sVRandom7Killer
p153
VRandom7Killer
p154
sVBhalchandra Joshi
p155
VBhalchandra Joshi
p156
sVAkshay Sukhija
p157
VAkshay Sukhija
p158
sVKaram
p159
VKaram
p160
sVMohit Gupta
p161
VMohit Gupta
p162
sVGame Swingers
p163
VGame Swingers
p164
sVPrajwala Srivatsa
p165
VPrajwala Srivatsa
p166
sVPratyush
p167
VPratyush
p168
sVTushar Patil
p169
VTushar Patil
p170
sVIksha
p171
VIksha
p172
sVjkgb
p173
Vjkgb
p174
sVPraveen Shamlal Kithani
p175
VPraveen Shamlal Kithani
p176
s.