(dp0
V
p1
VPramod Ingole
p2
sVArchit 
p3
VArchit Kapoor
p4
sVPooja
p5
VPooja Gupta
p6
sVTatarus pit
p7
VJerome
p8
sVpunyampat
p9
VPunyam Patnaik
p10
sVAtul
p11
VAtul sharma
p12
sVpunyampp
p13
VPunyam
p14
sVSandeep K 
p15
VSandeep Kothale 
p16
sVMaddy
p17
VMaddy
p18
sVWhistle podu
p19
VKunal Gautam
p20
sVnitrek
p21
VNitesh singh
p22
sVJi
p23
VJinal Rupawat
p24
sVThe Sorcerers !
p25
VTeam Sorcerers - AMG
p26
sVMavericks
p27
VMavericks
p28
sVVishwasb
p29
VVishwas Bajaj
p30
sVMakAarti
p31
VAarti Makhijani
p32
sVPacknik
p33
VNikhil PAKHALE
p34
sVRakesh
p35
VRakesh Choudhary
p36
sVThe Sorcerers
p37
VTeam Sorcerers
p38
sVHemant
p39
VHemant Kumar
p40
sVML Hunterzz
p41
VML Hunterzz
p42
sVChet
p43
VChetan Madur
p44
sVDanger Danger Creeping Closer 
p45
VJerome
p46
sVThamit
p47
VAmit Thakur
p48
sVLogan
p49
VSomesh Bakre
p50
sVRohan
p51
VRohan
p52
sVAnand
p53
VAnand Patil
p54
sVPunyamP
p55
VPunyam Patnaik
p56
sVkingsXIpunjab
p57
VkingsXIpunjab
p58
sVsachin
p59
VSachin Sharma
p60
s.