(dp0
V
p1
V0x7BdaCcE1A779A1232f1Ca3272d93Fd63c3e48F44
p2
sVArchit 
p3
V0x104e7CbB9ff327Fd6E17F801CF81AE6403C1d280
p4
sVPooja
p5
V0x8489e3aaA2227be24C0b6708e24b5D93D9Ae6aa8
p6
sVpsk
p7
V0x4904341D8779E10d77036cc209ecfbB2a1bacB8C
p8
sVNavish
p9
V0x23A75CCC13ea4ac7F79B3Ce822eB3200A00C4883
p10
sVTatarus pit
p11
V0xe243Ce7166c8A42F665D9C52429E8ddd6022F18c
p12
sVJR
p13
V0xCC8D8b086dBed45F087488E3BBb172d4fD67893d
p14
sVWhistle Podu
p15
V0x2279e1F61524857F45Cd4A3704B623fc50Aaf23e
p16
sVpunyampat
p17
V0x627306090abaB3A6e1400e9345bC60c78a8BEf57
p18
sVnidhi
p19
V0xb32009A158c558dAecbf7610E198BcB61d551BD0
p20
sVIkillz
p21
V0xBb99C60950F121E146BEF2F328e8c82FF077F97d
p22
sVAtul
p23
V0x0570490d91038Bb5725B2Dadf3FE919fD517B05C
p24
sVArun Singh
p25
V0x31CCEBC84B545F19fC918d34bFA96f1d5919d350
p26
sVTAS
p27
V0x192B41a5748F1d69f8b745a78F20f558abB988eD
p28
sVpunyampp
p29
V0x580E25F036936B84723D677d74757D76d7B32aaf
p30
sVSandeep K 
p31
V0xB768C03252a81667f60f3a8334077B2049A41412
p32
sVManny
p33
V0x3dF89767745e7E07A281be5DB39Be37E3b625F60
p34
sVMaddy
p35
V0x9407fF05df9B102eaaF935a209dC7D037BaC831a
p36
sVnitrek
p37
V0x2d1EF08D350a5Ff4D1351b9BE26166171c967351
p38
sVCH7
p39
V0xB96Ec7B19C0de269d610a2F8E12d2c25c16a1102
p40
sVatul
p41
V0x018Ca9B3373eE423D62f82D4eDE7E2fadFe8EeA7
p42
sVThe Sorcerers !
p43
V0x9DD4D7aDd63637Eb05f5Fc18E6F11F9376ee6AD8
p44
sVchaudhary
p45
V0x8015B26c75686843357eDfc89C761c0fe7118CF5
p46
sVN4Narcissist
p47
V0xF1f9E7Cb2581D529b1F5398f64dc76DFaa09186a
p48
sVMavericks
p49
V0x9BcF3b641A4ff536ABf933e54d7d8bEf25C3D9f1
p50
sVJkalalsingh
p51
V0x2cBfbc6f2e28Bf871Fd0587fEb2278b7f51d3A5c
p52
sVVishwasb
p53
V0x56Af097752628ebA77980Cf2e704dCb29281B993
p54
sVMakAarti
p55
V0x3305e1D53d235b719D0A267d1fB6d699bB0E1C10
p56
sVRandom7
p57
V0xc698F70f80aC18C9C33c7289E6CA55e8B88468D6
p58
sVPacknik
p59
V0x9F0c3Ba110E3E61761992fea58D125f601164ced
p60
sVChetan Sharma
p61
V0xF9C3832f73ac60e79f00337d701b4e45F8FCc0B9
p62
sVRakesh
p63
V0x42E918FcabB225a70db0392eaF6d80066ebCDc40
p64
sVKph
p65
V0x449857D5Fc0674a82e72e53B7C46C089C0A35061
p66
sVPIJU
p67
V0xD7550253008C72978E1074d991D097A8F97eBF89
p68
sVThe Sorcerers
p69
V0xB1ff063A7F26b4d5bd35369e6561b065e83a77CA
p70
sVHemant
p71
V0xfdcE80F4ACE9723e874DF236FAdf0BFBC6598818
p72
sVShaktimaan
p73
V0x6ba33fD3cC075D71C48597dF69278FFa3597a4F5
p74
sVMLYS
p75
V0x65b07E64cB0f55477c082a04D3446327D85b1896
p76
sVML Hunterzz
p77
V0x0b5E606b39B9029C2e4FcED7C97B012eDBa96C59
p78
sVChet
p79
V0x8D45C2acc0A582CB31baa6BAa761aDE7173c3B7A
p80
sVDanger Danger Creeping Closer 
p81
V0x71De7bcbe8F4e5C54ad7e58856C70C19CdDAb1b3
p82
sVcvs257
p83
V0x42C09605F6A7a0D5f28EEE57294ae00cb6939Efe
p84
sVThamit
p85
V0x17664421d825760920b971327aE18E054BE92669
p86
sVIplchamps
p87
V0x8A219C1ae4f068b3B17a6cD7670f2AB7f78D344b
p88
sVLogan
p89
V0x44A44315d69C4AF27c76B3b5e8C11b5CC92d24b3
p90
sVRohan
p91
V0x21306b1bed3354a465B856D18D360B98821C99Cf
p92
sVAnand
p93
V0xABe03a544Efd8147CE451ceE8cCAA7E895fc400e
p94
sVPunyamP
p95
V0x085E946AbA16e8AD4acEC35ceE8ddf0aB3EB2177
p96
sVsachin
p97
V0x4687193d7C4def8A36796795D7Ab865366bC0ED5
p98
sVPuneriBlockChain
p99
V0x4c319522e57061247eB1f7a112b7EF1aAFA0D478
p100
s.