(dp0
VCoolrider
p1
VSachin kewat
p2
sVFlash
p3
VAbdul Azeem
p4
sVTanay Mathur
p5
VTanay Mathur
p6
sVAarti M
p7
VAarti M
p8
sVipljunky
p9
Vipljunky
p10
sVMangesh
p11
VMangesh
p12
sVSarang Chauhan 
p13
VSarang Chauhan 
p14
sVCSK Fan
p15
VAnurag Singh
p16
sVWillSmith
p17
VWillSmith
p18
sVSupport_PP
p19
VSupport_PP
p20
sVChacha
p21
VChacha
p22
sVsiddharth
p23
Vsiddharth
p24
sV@Garib_Insaan
p25
V@Garib_Insaan
p26
sVHarshada
p27
VHarshada Joshi
p28
sVKiran Kumar Pabboji 
p29
VKiran Kumar Pabboji 
p30
sVKrishna
p31
VKrishna
p32
sVJeet
p33
VJeet
p34
sVShirishT20
p35
VShirish
p36
sVGajanan
p37
VGajanan Lokhande
p38
sVthegodfather
p39
Vthegodfather
p40
sVHimanshu Hansaria
p41
VHimanshu Hansaria
p42
sVNeeraj Kumar
p43
VNeeraj Kumar
p44
sVTanvirs 
p45
VTanvirs 
p46
sVRabi Patro
p47
VRabi Patro
p48
sVAdmin_PP
p49
VAdmin_PP
p50
sVa_m_a_n
p51
VSherlock H
p52
sVVarun samant
p53
VVarun samant
p54
sVPankajk
p55
VPankaj Khairnar
p56
sVMOHD AQUIB
p57
VMOHD AQUIB
p58
sVAksS
p59
VAkshay Sukhija
p60
sVJyoti singh
p61
VJyoti singh
p62
sVKunalG
p63
VKunalG
p64
sVJerome
p65
VJerome Master
p66
sVPrashant Gupta
p67
VPrashant Gupta
p68
sVKunal Maheshwari
p69
VKunal Maheshwari
p70
sVak2605
p71
Vak2605
p72
sVChaitanya
p73
VChaitanya
p74
sVMachineBeast
p75
Vmachine_beast
p76
sVDipendra
p77
VDipendra
p78
sVPrasun Pande
p79
VPrasun Pande
p80
sVTwentyashes
p81
VTwentyashes
p82
sVSagar Deshmukh
p83
VSagar Deshmukh
p84
sVSupport2 sb
p85
VSupport2 sb
p86
sVNeeraj-build
p87
VNeeraj kumar
p88
sVAtul Sharma
p89
VAtul Sharma
p90
sVGirish
p91
VGirish
p92
sVSuvit
p93
VSuvit
p94
sVChetan sharma
p95
VChetan sharma
p96
sVPranshu Topal
p97
VPranshu Topal
p98
sVRandom7
p99
VRandom7
p100
sVResearch Machines
p101
VResearch Machines
p102
sVShunya
p103
VShunya
p104
sVRupeshKirmirwar
p105
VRupesh Kirmirwar
p106
sVSanidhya 
p107
VSanidhya 
p108
sVRamdon007++
p109
VRamdon007++
p110
sVVirendrasinh Gohil 
p111
VVirendrasinh Gohil 
p112
sVPramod
p113
VPramod
p114
sVChirag Kankariya
p115
VChirag Kankariya
p116
sVRohit Srivastava
p117
VRohit Srivastava
p118
sVSumeet Kataria
p119
VSumeet Kataria
p120
sVJeromeML
p121
VJerome Masters ML
p122
sVAdityaadiraju
p123
VAdityaadiraju
p124
sVAnand
p125
VAnand
p126
sVJadu
p127
VJadu
p128
sVAdmin_SachinS
p129
VAdmin_SachinS
p130
sVProthit
p131
VProthit Majumdar
p132
sVSagar 
p133
VSagar 
p134
sVMatrix
p135
VMatrix
p136
sVXYZ Prediction
p137
VXYZ Prediction
p138
sVVinay Takawale
p139
VVinay Takawale
p140
sVShubham Thakur
p141
VShubham Thakur
p142
sVchawkidaar
p143
Vchawkidaar
p144
sVLights
p145
VVijeth B V
p146
sVSrikanth
p147
VSrikanth Galanki
p148
sVOptimus prime
p149
VTushil
p150
sVsachins
p151
Vsachins
p152
sVArks
p153
Vhoris arks ML
p154
sVKAMSY
p155
VKamlesh oswal
p156
sVAnurag
p157
VAnurag
p158
sVPehchaan Kaun
p159
VAditi Garg
p160
sVAnanta Prasad Kabi
p161
VAnanta Prasad Kabi
p162
sVSneh Mujoo
p163
VSneh Mujoo
p164
sVPRAGATI S
p165
VPRAGATI S
p166
sVAlphaGoShunya
p167
VAlphaGoShunya
p168
sVProthit Majumdar 
p169
VProthit Majumdar 
p170
sVNiraj Diwan
p171
VNiraj Diwan
p172
sVShwet Ketu Haritas
p173
VShwet Ketu Haritas
p174
sVWingu
p175
VWingu
p176
sVVandana Jindal
p177
VVandana Jindal
p178
sVAnkit jain
p179
VAnkit jain
p180
sVSudhir 
p181
VSudhir Mahadik
p182
sVanthony
p183
VAnthony Almeida 
p184
sVKrishna Bellary
p185
VKrishna
p186
sVYogiDon
p187
VYogiDon
p188
sVRohitRas
p189
VRohit Pattewar 
p190
sVAustin
p191
VAustin
p192
sVVivek Gorwadkar
p193
VVivek Gorwadkar
p194
sVAnkit Saraf
p195
VAnkit Saraf
p196
sVNikhilesh
p197
VNikhilesh
p198
sVML YUV SENA
p199
VML YUV SENA
p200
sVArpit saxena
p201
VArpit saxena
p202
sVLalit Mohnani
p203
VLalit Mohnani
p204
sVKiran
p205
VKiran
p206
sVRajesh Gawade
p207
VRajesh Gawade
p208
sVRavi Sharma
p209
VRavi Sharma
p210
sVJignesh
p211
VJignesh kanani
p212
sVML Yuva Sena
p213
VML Yuva Sena
p214
sVAbhijit
p215
VABHIJIT KULKARNI
p216
sVPrachi
p217
VPrachi
p218
sVPrajakta
p219
VPrajakta
p220
sVrahulsingh
p221
VChowkidar Rahul Singh
p222
sVMSK
p223
VMangesh
p224
sVIPLKiAAG
p225
VIPLKiAAG
p226
sVOmkar
p227
VOmkar
p228
sVAkshata Raikar
p229
VAkshata Raikar
p230
sVsanro1
p231
VSanjay Rokade 
p232
sVPappu
p233
VAvishek J
p234
sVRailSplitter
p235
VRailSplitter
p236
sVAladdin
p237
VAladdin
p238
sVsuperman
p239
Vsuperman
p240
sVmohitml
p241
VML rangers
p242
sVml junky
p243
VML junky
p244
sVAvik Chakraborty
p245
VAvik Chakraborty
p246
sVSorcerers Reloaded
p247
VSorcerers Reloaded
p248
sVTS
p249
VTS
p250
sVRandom7Killer
p251
VRandom7Killer
p252
sVSanyam Shrivastava
p253
VSanyam Shrivastava
p254
sVBhalchandra Joshi
p255
VBhalchandra Joshi
p256
sVAvinash Jedhe
p257
VAvinash Jedhe
p258
sVSanidhya
p259
VSanidhya
p260
sVPrabhat
p261
VPrabhat
p262
sVKushaltikmani
p263
VKushaltikmani
p264
sVpankaj007
p265
Vpankaj007
p266
sVAkshay Sukhija
p267
VAkshay Sukhija
p268
sVKaram
p269
VKaram
p270
sVMohit Gupta
p271
VMohit Gupta
p272
sV@zawarm
p273
VMamta Zawar
p274
sVGame Swingers
p275
VGame Swingers
p276
sVPrajwala Srivatsa
p277
VPrajwala Srivatsa
p278
sV#DilSeMI
p279
V#DilSeMI
p280
sVPratyush
p281
VPratyush
p282
sVTushar Patil
p283
VTushar Patil
p284
sVIksha
p285
VIksha
p286
sVoKtopus prediKtus
p287
VoKtopus
p288
sVMlp
p289
Vml Pragati
p290
sVjkgb
p291
Vjkgb
p292
sVAayush
p293
VJamalamadaka
p294
sVPraveen Shamlal Kithani
p295
VPraveen Shamlal Kithani
p296
s.