(dp0
V
p1
VPramod Ingole
p2
sVRohan DLT
p3
VRohan Singh
p4
sVPredictors
p5
VRicha Minda
p6
sVSagar Pawar
p7
VSagar Pawar
p8
sVJEET
p9
VAbhijeet Shinde
p10
sVShekhu
p11
VShekhar kangale
p12
sVNovice
p13
VNoviceML
p14
sVJR
p15
VJinal Rupawat
p16
sVSTRICKERS007
p17
VHemant Khankal
p18
sVWhistle Podu
p19
VKunal Gautam
p20
sVRaghav
p21
VRaghavendra Choudhary
p22
sVSamreen135
p23
VSamreen Shaikh
p24
sVBS
p25
VBhaskar Srivastava
p26
sVAyu
p27
VAyush Singh
p28
sVSupriya2805
p29
VSupriya Rajaram Shelar
p30
sVHorisReboot
p31
VHoris Reboot
p32
sVTAS
p33
VTarique Siddiqui
p34
sVNovice rookies
p35
VNovice rookies
p36
sVITBackbenchers
p37
VNitesh Jaiswal
p38
sVSandeep K 
p39
VSandeep Kothale 
p40
sVThe Jolly Cricketer
p41
VChaitanya Shewatkar
p42
sVSmita J
p43
VSmita Jamalamadaka
p44
sVPravin
p45
VPravin Jape
p46
sVnitrek
p47
VSupport1
p48
sV4
p49
VSupport4
p50
sVCH7
p51
VKanchan Popali
p52
sV8
p53
VSupport8
p54
sVHarshada
p55
VHarshada joshi
p56
sVRJ
p57
VRuchir Jain
p58
sVPravinBane
p59
VPravinkumar Bane 
p60
sVnidhi
p61
VNidhi Singh
p62
sVR\u20ac\u03c0uK@
p63
VRenuka Belani
p64
sV7
p65
VSupport7
p66
sVSikander31
p67
VSubodh Jugalkishor Mundhada
p68
sVSamyoo7
p69
VPrabhat
p70
sVIpllover
p71
VPrashant Bhosale
p72
sVSanky
p73
VSanket Desai
p74
sVPacknik
p75
VNikhil PAKHALE
p76
sVIplpredictor
p77
VRohit Patidar
p78
sVAshish Joshi 
p79
VAshish Joshi
p80
sVKph
p81
VKanhaiya Honrao 
p82
sVAmit
p83
VAmit
p84
sVNikhil2705
p85
VNikhil Gawande
p86
sVCV Coders
p87
VCV Coders
p88
sVTusharpatil
p89
VTushar patil
p90
sVSac
p91
VSachin
p92
sVmanas
p93
VManas Kagde
p94
sVST20
p95
VShirish T
p96
sVRJ_B
p97
VRaja Bera
p98
sVamol1122
p99
VAmol Markande
p100
sVRavi
p101
VRavindra Rahate
p102
sVDivyaIPL
p103
VDivya Srivastava
p104
sVSagar
p105
VSagar Deshmukh 
p106
sVKrishna 
p107
VKrishna Bellary
p108
sVWakad Whackers
p109
VSudhir Mahadik 
p110
sVPuneriBlockChain
p111
VGajanan Lokhande
p112
sVTatarus pit
p113
VJerome
p114
sVLoneRanger
p115
VRahul Choudhari 
p116
sVPratyush
p117
VPratyush
p118
sVNavish
p119
VNavish Mishra
p120
sVTodu champion
p121
VRAVI SHARMA
p122
sVThePredictors
p123
VThe Predictors
p124
sVPk
p125
VPankaj khairnar 
p126
sVSushantm20
p127
VSushant Mishrikotkar 
p128
sVArun Singh
p129
VArun Singh
p130
sVGsunny
p131
VSunny Goley
p132
sVIMHSAR
p133
VSarang Chauhan
p134
sVOmi
p135
VOmkar Shetye
p136
sVJkalalsingh
p137
VJyoti singg
p138
sVKunal
p139
VKunal Ved
p140
sVRaka
p141
VRakesh Nair
p142
sV3
p143
VSupport3
p144
sVpankaj
p145
Vpankaj
p146
sVSachin D
p147
VSachin deshpande
p148
sVAnkit
p149
VAnkit
p150
sVRandom7
p151
VRandom7
p152
sVatul
p153
VAtul Chaudhari
p154
sVThe Sorcerers !
p155
VTeam Sorcerers - AMG
p156
sVjayshree
p157
VJayshree kakde
p158
sVYuvraj
p159
VYuvraj Bhosale
p160
sVTushar
p161
VTushar Gadhave
p162
sVRavindar
p163
VRavindar kumar
p164
sVAala re
p165
VKartik Ambulkar
p166
sVCrickbot
p167
VAnand Patil
p168
sVRakesh
p169
VRakesh Choudhary
p170
sVSharma18
p171
VAtul kumar sharma
p172
sVPramod
p173
VPramod Karhadkar
p174
sVHemant
p175
VHemant Kumar
p176
sVDoremon
p177
VNeha
p178
sVShaktimaan
p179
VShaktimaan
p180
sVNiraj
p181
VNiraj S Diwan
p182
sVPooja
p183
VPooja Gupta
p184
sVShilpa
p185
VShilpa sane
p186
sVcvs257
p187
VSaketh Chitrapu
p188
sVAnkit Jain
p189
VAnkit Jain
p190
sVSparklers
p191
VPriya Bharti
p192
sVonlyAbhinav 
p193
VAbhinav Sharma
p194
sVThe Predictors
p195
VThe Predictors
p196
sVDushant
p197
VDushant Bhinge
p198
sVPIJU
p199
VPrajakta
p200
sVAnand
p201
VAnand Patil
p202
sVBhayankars
p203
VAnchal Nigam
p204
sVPiyushN
p205
VPiyush  Narlawar
p206
sVMachupiccu
p207
VMachupiccu
p208
sVNare10
p209
VAniket Ashok Nare
p210
sVLalit1548
p211
VLalit Mohnani
p212
sVsachinmang
p213
Vsachin mangal
p214
sVTiger
p215
VPraful Awari 
p216
sVKavitasolanki15 
p217
VKavita Solanki 
p218
sVGeniusGirish
p219
VGirish Sarvottam Kulkarni 
p220
sVKhelo
p221
VKhelo
p222
sVPrerika
p223
VPrerika
p224
sVOnboarding Super Kings
p225
VOnboarding Super Kings
p226
sV2
p227
VSupport2
p228
sVvarun_vj
p229
VVarun Jain
p230
sVHORIS_RETURNS
p231
VHORIS_RETURNS
p232
sV6
p233
VSupport6
p234
sVGame Changer
p235
VPALAK BAGGA
p236
sVchaudhary
p237
VNidhi Singh
p238
sVScorpion
p239
VNeerav shah
p240
sVMavericks
p241
VMavericks
p242
sVSRK
p243
VSarang Ramesh Kulkarni
p244
sVMakAarti
p245
VAarti Makhijani
p246
sVSwets 
p247
VSwets
p248
sVIplchamps
p249
VIPL Champs
p250
sVChetan Sharma
p251
VChetan Sharma
p252
sVRoyston
p253
VRoyston Pereira
p254
sVAshu
p255
VAshutosh Dekondwar
p256
sVThe Sorcerers
p257
VTeam Sorcerers
p258
sVCricfrenz.com
p259
VCricfrenz
p260
sVSvbipl
p261
VSagar Badve
p262
sV11
p263
VSupport9
p264
sVaad
p265
VAjay A Deshpande 
p266
sV13
p267
VSupport3
p268
sV12
p269
VSupport9
p270
sVTush_DevD
p271
VTushar Baban Devardekar
p272
sVDivyaIPL2
p273
VDivya Srivastava
p274
sVRohan
p275
VRohan
p276
sVDhruv
p277
VJitendra solanki
p278
sVPinks
p279
VPinky Porwal
p280
sVAbhiKulk
p281
VAbhijit Kulkarni
p282
sVDabangHero
p283
VKunal Maheshwari
p284
sVSnehMujoo
p285
VSneh Mujoo
p286
sVArchit 
p287
VArchit Kapoor
p288
sVDJ
p289
VDharmendra Jaiswal
p290
sVpsk
p291
VPraveen Shamlal Kithani
p292
sV999999999
p293
Vauto_test99
p294
sVAflatoon
p295
VRashmi Shivhare
p296
sVMSG
p297
VAmg navigator
p298
sVsanjayr
p299
VSanajy Rokade 
p300
sVMSK
p301
VManguesh Sinai Kaisare 
p302
sVravindra jain
p303
Vravindra jain
p304
sVCheetah
p305
VBalaji Srinivasan
p306
sVMonica
p307
VSparklers
p308
sVJT's Team
p309
VJatin Thakkar
p310
sVSkull
p311
VTeam Skull
p312
sVUrvi
p313
VUrvi
p314
sVWarrior55
p315
VKandarpa Raghav
p316
sVIpl-prophecy
p317
VSanjay maheshwari
p318
sVMaddy
p319
VMaddy
p320
sVMac
p321
VMac
p322
sV5
p323
VSupport5
p324
sVDeep Minds
p325
VDeep Minds
p326
sV9
p327
VSupport4
p328
sVViren
p329
VVirendrasinh Gohil
p330
sVDesiBoys
p331
VPrashant rathi 
p332
sV10
p333
VSupport4
p334
sVMahi
p335
VMahesh Vasudevan
p336
sVN4Narcissist
p337
VNikhil
p338
sVVishwasb
p339
VVishwas Bajaj
p340
sVAK
p341
VAnubhav kondawar
p342
sVRomesh
p343
VRomesh Bajaj
p344
sVScavanger
p345
VRohit Rijhwani 
p346
sVML Hunterzz
p347
VRohit
p348
sVPeeyush sodhia
p349
VPeeyush Sodhia 
p350
sVJCB
p351
VJay Bhatia
p352
sVSjyptr
p353
VSanjay patidar
p354
sVTJ
p355
VSunny Parekh
p356
sVMLYS
p357
VML Yuva Sena
p358
sVMyBestTeam
p359
VSomnath Das
p360
sVChet
p361
VChetan Madur
p362
sVDanger Danger Creeping Closer 
p363
VJerome
p364
sVRupeshK
p365
VRupesh Kirmirwar
p366
sVRS
p367
VRoma Saini
p368
sVDeep
p369
VDeepanjan Kanungo 
p370
sVArchit
p371
VDoctor Strange
p372
sVManny
p373
VManoj Ramchandani
p374
sV3EyedRaven
p375
VKarunesh Kumar
p376
sVIkillz
p377
VIshan
p378
sVShip
p379
VShipra Jain
p380
sVgjain
p381
VGaurav Jain
p382
s.