(dp0
VKAMSY
p1
V0x12883267298A5666e68e1379Fb99DEc591b2C700
p2
sVRupeshKirmirwar
p3
V0x77C61D5Df8759cef69DB539f88BD014ab2C10440
p4
sVPappu
p5
V0x3eE2Ccd95558dD586489972f9b1Ba06D8eE083b5
p6
sVAdmin_PP
p7
V0x314Da668b2e2618C7590248C3FE36D695925b2c4
p8
sVMSK
p9
V0x0b8b6fE573aF299684a0990f90Da330F683A7C61
p10
sVAksS
p11
V0x7B1bd3b475ACA7E38CCa1615a7e631c3D36Be838
p12
sVthegodfather
p13
V0x93EA5285074924ce6A1aC16036a7B6DD75F81947
p14
sVsachins
p15
V0x9e93197e6f19c5e0654d3243c15e844f6a66d742
p16
sVRailSplitter
p17
V0x20e7DB048A799b34eDE83A8431033AdCF5eF1c6b
p18
sVAdmin_SachinS
p19
V0x4687193d7C4def8A36796795D7Ab865366bC0ED5
p20
s.