(dp0
V
p1
VPramod Ingole
p2
sVRohan DLT
p3
VRohan Singh
p4
sVPredictors
p5
VRicha Minda
p6
sVSagar Pawar
p7
VSagar Pawar
p8
sVJEET
p9
VAbhijeet Shinde
p10
sVShekhu
p11
VShekhar kangale
p12
sVNovice
p13
VNoviceML
p14
sVJR
p15
VJinal Rupawat
p16
sVSTRICKERS007
p17
VHemant Khankal
p18
sVWhistle Podu
p19
VKunal Gautam
p20
sVRaghav
p21
VRaghavendra Choudhary
p22
sVSamreen135
p23
VSamreen Shaikh
p24
sVBS
p25
VBhaskar Srivastava
p26
sVAyu
p27
VAyush Singh
p28
sVSupriya2805
p29
VSupriya Rajaram Shelar
p30
sVHorisReboot
p31
VHoris Reboot
p32
sVTAS
p33
VTarique Siddiqui
p34
sVNovice rookies
p35
VNovice rookies
p36
sVITBackbenchers
p37
VNitesh Jaiswal
p38
sVSandeep K 
p39
VSandeep Kothale 
p40
sVThe Jolly Cricketer
p41
VChaitanya Shewatkar
p42
sVSmita J
p43
VSmita Jamalamadaka
p44
sVPravin
p45
VPravin Jape
p46
sVnitrek
p47
VSupport1
p48
sV4
p49
VSupport4
p50
sVCH7
p51
VKanchan Popali
p52
sV8
p53
VSupport8
p54
sVHarshada
p55
VHarshada joshi
p56
sVRJ
p57
VRuchir Jain
p58
sVPravinBane
p59
VPravinkumar Bane 
p60
sVnidhi
p61
VNidhi Singh
p62
sVR\u20ac\u03c0uK@
p63
VRenuka Belani
p64
sV7
p65
VSupport7
p66
sVSikander31
p67
VSubodh Jugalkishor Mundhada
p68
sVSamyoo7
p69
VPrabhat
p70
sVIpllover
p71
VPrashant Bhosale
p72
sVSanky
p73
VSanket Desai
p74
sVPacknik
p75
VNikhil PAKHALE
p76
sVIplpredictor
p77
VRohit Patidar
p78
sVAshish Joshi 
p79
VAshish Joshi
p80
sVKph
p81
VKanhaiya Honrao 
p82
sVAmit
p83
VAmit
p84
sVNikhil2705
p85
VNikhil Gawande
p86
sVCV Coders
p87
VCV Coders
p88
sVTusharpatil
p89
VTushar patil
p90
sVRas.rohit
p91
VRohit Pattewar 
p92
sVSac
p93
VSachin
p94
sVmanas
p95
VManas Kagde
p96
sVST20
p97
VShirish T
p98
sVdev1504
p99
Vdev1234@
p100
sVRJ_B
p101
VRaja Bera
p102
sVamol1122
p103
VAmol Markande
p104
sVRavi
p105
VRavindra Rahate
p106
sVDivyaIPL
p107
VDivya Srivastava
p108
sVSagar
p109
VSagar Deshmukh 
p110
sVKrishna 
p111
VKrishna Bellary
p112
sVWakad Whackers
p113
VSudhir Mahadik 
p114
sVPuneriBlockChain
p115
VGajanan Lokhande
p116
sVTatarus pit
p117
VJerome
p118
sVLoneRanger
p119
VRahul Choudhari 
p120
sVPratyush
p121
VPratyush
p122
sVNavish
p123
VNavish Mishra
p124
sVTodu champion
p125
VRAVI SHARMA
p126
sVThePredictors
p127
VThe Predictors
p128
sVPk
p129
VPankaj khairnar 
p130
sVSushantm20
p131
VSushant Mishrikotkar 
p132
sVArun Singh
p133
VArun Singh
p134
sVGsunny
p135
VSunny Goley
p136
sVIMHSAR
p137
VSarang Chauhan
p138
sVOmi
p139
VOmkar Shetye
p140
sVJkalalsingh
p141
VJyoti singg
p142
sVKunal
p143
VKunal Ved
p144
sVRaka
p145
VRakesh Nair
p146
sV3
p147
VSupport3
p148
sVpankaj
p149
Vpankaj
p150
sVSachin D
p151
VSachin deshpande
p152
sVAnkit
p153
VAnkit
p154
sVRandom7
p155
VRandom7
p156
sVatul
p157
VAtul Chaudhari
p158
sVThe Sorcerers !
p159
VTeam Sorcerers - AMG
p160
sVjayshree
p161
VJayshree kakde
p162
sVYuvraj
p163
VYuvraj Bhosale
p164
sVTushar
p165
VTushar Gadhave
p166
sVRavindar
p167
VRavindar kumar
p168
sVAala re
p169
VKartik Ambulkar
p170
sVCrickbot
p171
VAnand Patil
p172
sVRakesh
p173
VRakesh Choudhary
p174
sVSharma18
p175
VAtul kumar sharma
p176
sVPramod
p177
VPramod Karhadkar
p178
sVHemant
p179
VHemant Kumar
p180
sVDoremon
p181
VNeha
p182
sVShaktimaan
p183
VShaktimaan
p184
sVNiraj
p185
VNiraj S Diwan
p186
sVPooja
p187
VPooja Gupta
p188
sVShilpa
p189
VShilpa sane
p190
sVcvs257
p191
VSaketh Chitrapu
p192
sVAnkit Jain
p193
VAnkit Jain
p194
sVSparklers
p195
VPriya Bharti
p196
sVonlyAbhinav 
p197
VAbhinav Sharma
p198
sVThe Predictors
p199
VThe Predictors
p200
sVDushant
p201
VDushant Bhinge
p202
sVPIJU
p203
VPrajakta
p204
sVAnand
p205
VAnand Patil
p206
sVBhayankars
p207
VAnchal Nigam
p208
sVPiyushN
p209
VPiyush  Narlawar
p210
sVMachupiccu
p211
VMachupiccu
p212
sVNare10
p213
VAniket Ashok Nare
p214
sVLalit1548
p215
VLalit Mohnani
p216
sVsachinmang
p217
Vsachin mangal
p218
sVTiger
p219
VPraful Awari 
p220
sVKavitasolanki15 
p221
VKavita Solanki 
p222
sVGeniusGirish
p223
VGirish Sarvottam Kulkarni 
p224
sVKhelo
p225
VKhelo
p226
sVPrerika
p227
VPrerika
p228
sVOnboarding Super Kings
p229
VOnboarding Super Kings
p230
sV2
p231
VSupport2
p232
sVvarun_vj
p233
VVarun Jain
p234
sVHORIS_RETURNS
p235
VHORIS_RETURNS
p236
sV6
p237
VSupport6
p238
sVGame Changer
p239
VPALAK BAGGA
p240
sVchaudhary
p241
VNidhi Singh
p242
sVScorpion
p243
VNeerav shah
p244
sVMavericks
p245
VMavericks
p246
sVSRK
p247
VSarang Ramesh Kulkarni
p248
sVMakAarti
p249
VAarti Makhijani
p250
sVSwets 
p251
VSwets
p252
sVIplchamps
p253
VIPL Champs
p254
sVChetan Sharma
p255
VChetan Sharma
p256
sVRoyston
p257
VRoyston Pereira
p258
sVAshu
p259
VAshutosh Dekondwar
p260
sVThe Sorcerers
p261
VTeam Sorcerers
p262
sVCricfrenz.com
p263
VCricfrenz
p264
sVSvbipl
p265
VSagar Badve
p266
sV11
p267
VSupport9
p268
sVaad
p269
VAjay A Deshpande 
p270
sV13
p271
VSupport3
p272
sV12
p273
VSupport9
p274
sVTush_DevD
p275
VTushar Baban Devardekar
p276
sVDivyaIPL2
p277
VDivya Srivastava
p278
sVFrenzied 
p279
VShailendra Singh 
p280
sVRohan
p281
VRohan
p282
sVDhruv
p283
VJitendra solanki
p284
sVPinks
p285
VPinky Porwal
p286
sVAbhiKulk
p287
VAbhijit Kulkarni
p288
sVDabangHero
p289
VKunal Maheshwari
p290
sVSnehMujoo
p291
VSneh Mujoo
p292
sVArchit 
p293
VArchit Kapoor
p294
sVDJ
p295
VDharmendra Jaiswal
p296
sVpsk
p297
VPraveen Shamlal Kithani
p298
sV999999999
p299
Vauto_test99
p300
sVAflatoon
p301
VRashmi Shivhare
p302
sVMSG
p303
VAmg navigator
p304
sVsanjayr
p305
VSanajy Rokade 
p306
sVMSK
p307
VManguesh Sinai Kaisare 
p308
sVSnehal
p309
VSnehal Prasad Pingle
p310
sVravindra jain
p311
Vravindra jain
p312
sVCheetah
p313
VBalaji Srinivasan
p314
sVMonica
p315
VSparklers
p316
sVJT's Team
p317
VJatin Thakkar
p318
sVSkull
p319
VTeam Skull
p320
sVUrvi
p321
VUrvi
p322
sVWarrior55
p323
VKandarpa Raghav
p324
sVIpl-prophecy
p325
VSanjay maheshwari
p326
sVMaddy
p327
VMaddy
p328
sVMac
p329
VMac
p330
sV5
p331
VSupport5
p332
sVDeep Minds
p333
VDeep Minds
p334
sV9
p335
VSupport4
p336
sVViren
p337
VVirendrasinh Gohil
p338
sVDesiBoys
p339
VPrashant rathi 
p340
sV10
p341
VSupport4
p342
sVMahi
p343
VMahesh Vasudevan
p344
sVN4Narcissist
p345
VNikhil
p346
sVVishwasb
p347
VVishwas Bajaj
p348
sVAK
p349
VAnubhav kondawar
p350
sVRomesh
p351
VRomesh Bajaj
p352
sVScavanger
p353
VRohit Rijhwani 
p354
sVML Hunterzz
p355
VRohit
p356
sVPeeyush sodhia
p357
VPeeyush Sodhia 
p358
sVJCB
p359
VJay Bhatia
p360
sVSjyptr
p361
VSanjay patidar
p362
sVTJ
p363
VSunny Parekh
p364
sVMLYS
p365
VML Yuva Sena
p366
sVMyBestTeam
p367
VSomnath Das
p368
sVChet
p369
VChetan Madur
p370
sVDanger Danger Creeping Closer 
p371
VJerome
p372
sVRupeshK
p373
VRupesh Kirmirwar
p374
sVRS
p375
VRoma Saini
p376
sVDeep
p377
VDeepanjan Kanungo 
p378
sVArchit
p379
VDoctor Strange
p380
sVManny
p381
VManoj Ramchandani
p382
sV3EyedRaven
p383
VKarunesh Kumar
p384
sVIkillz
p385
VIshan
p386
sVShip
p387
VShipra Jain
p388
sVFantastic Warriors 33
p389
VSandeep jain
p390
sVgjain
p391
VGaurav Jain
p392
s.