(dp0
V
p1
V0x7BdaCcE1A779A1232f1Ca3272d93Fd63c3e48F44
p2
sVArchit 
p3
V0x104e7CbB9ff327Fd6E17F801CF81AE6403C1d280
p4
sVPooja
p5
V0x8489e3aaA2227be24C0b6708e24b5D93D9Ae6aa8
p6
sVTatarus pit
p7
V0xe243Ce7166c8A42F665D9C52429E8ddd6022F18c
p8
sVpunyampat
p9
V0x627306090abaB3A6e1400e9345bC60c78a8BEf57
p10
sVAtul
p11
V0x0570490d91038Bb5725B2Dadf3FE919fD517B05C
p12
sVpunyampp
p13
V0x580E25F036936B84723D677d74757D76d7B32aaf
p14
sVSandeep K 
p15
V0xB768C03252a81667f60f3a8334077B2049A41412
p16
sVMaddy
p17
V0x9407fF05df9B102eaaF935a209dC7D037BaC831a
p18
sVWhistle podu
p19
V0x2279e1F61524857F45Cd4A3704B623fc50Aaf23e
p20
sVnitrek
p21
V0x2d1EF08D350a5Ff4D1351b9BE26166171c967351
p22
sVJi
p23
V0xCC8D8b086dBed45F087488E3BBb172d4fD67893d
p24
sVThe Sorcerers !
p25
V0x9DD4D7aDd63637Eb05f5Fc18E6F11F9376ee6AD8
p26
sVMavericks
p27
V0x9BcF3b641A4ff536ABf933e54d7d8bEf25C3D9f1
p28
sVVishwasb
p29
V0x56Af097752628ebA77980Cf2e704dCb29281B993
p30
sVMakAarti
p31
V0x3305e1D53d235b719D0A267d1fB6d699bB0E1C10
p32
sVPacknik
p33
V0x9F0c3Ba110E3E61761992fea58D125f601164ced
p34
sVRakesh
p35
V0x42E918FcabB225a70db0392eaF6d80066ebCDc40
p36
sVThe Sorcerers
p37
V0xB1ff063A7F26b4d5bd35369e6561b065e83a77CA
p38
sVHemant
p39
V0xfdcE80F4ACE9723e874DF236FAdf0BFBC6598818
p40
sVML Hunterzz
p41
V0x0b5E606b39B9029C2e4FcED7C97B012eDBa96C59
p42
sVChet
p43
V0x8D45C2acc0A582CB31baa6BAa761aDE7173c3B7A
p44
sVDanger Danger Creeping Closer 
p45
V0x71De7bcbe8F4e5C54ad7e58856C70C19CdDAb1b3
p46
sVThamit
p47
V0x17664421d825760920b971327aE18E054BE92669
p48
sVLogan
p49
V0x44A44315d69C4AF27c76B3b5e8C11b5CC92d24b3
p50
sVRohan
p51
V0x21306b1bed3354a465B856D18D360B98821C99Cf
p52
sVAnand
p53
V0xABe03a544Efd8147CE451ceE8cCAA7E895fc400e
p54
sVPunyamP
p55
V0x085E946AbA16e8AD4acEC35ceE8ddf0aB3EB2177
p56
sVkingsXIpunjab
p57
V0xc698F70f80aC18C9C33c7289E6CA55e8B88468D6
p58
sVsachin
p59
V0x4687193d7C4def8A36796795D7Ab865366bC0ED5
p60
s.