(dp0
VKAMSY
p1
VKamlesh oswal
p2
sVRupeshKirmirwar
p3
VRupesh Kirmirwar
p4
sVPappu
p5
VAvishek J
p6
sVAdmin_PP
p7
VAdmin_PP
p8
sVMSK
p9
VMangesh
p10
sVAksS
p11
VAkshay Sukhija
p12
sVthegodfather
p13
Vthegodfather
p14
sVsachins
p15
Vsachins
p16
sVRailSplitter
p17
VRailSplitter
p18
sVAdmin_SachinS
p19
VAdmin_SachinS
p20
s.