(dp0
VCoolrider
p1
VSachin kewat
p2
sVFlash
p3
VAbdul Azeem
p4
sVTanay Mathur
p5
VTanay Mathur
p6
sVAarti M
p7
VAarti M
p8
sVipljunky
p9
Vipljunky
p10
sVMangesh
p11
VMangesh
p12
sVSarang Chauhan 
p13
VSarang Chauhan 
p14
sVCSK Fan
p15
VAnurag Singh
p16
sVWillSmith
p17
VWillSmith
p18
sVSupport_PP
p19
VSupport_PP
p20
sVChacha
p21
VChacha
p22
sVsiddharth
p23
Vsiddharth
p24
sV@Garib_Insaan
p25
V@Garib_Insaan
p26
sVKiran Kumar Pabboji 
p27
VKiran Kumar Pabboji 
p28
sVKrishna
p29
VKrishna
p30
sVJeet
p31
VJeet
p32
sVShirishT20
p33
VShirish
p34
sVthegodfather
p35
Vthegodfather
p36
sVHimanshu Hansaria
p37
VHimanshu Hansaria
p38
sVNeeraj Kumar
p39
VNeeraj Kumar
p40
sVTanvirs 
p41
VTanvirs 
p42
sVRabi Patro
p43
VRabi Patro
p44
sVAdmin_PP
p45
VAdmin_PP
p46
sVVarun samant
p47
VVarun samant
p48
sVMOHD AQUIB
p49
VMOHD AQUIB
p50
sVAksS
p51
VAkshay Sukhija
p52
sVJyoti singh
p53
VJyoti singh
p54
sVKunalG
p55
VKunalG
p56
sVJerome
p57
VJerome Master
p58
sVPrashant Gupta
p59
VPrashant Gupta
p60
sVKunal Maheshwari
p61
VKunal Maheshwari
p62
sVak2605
p63
Vak2605
p64
sVChaitanya
p65
VChaitanya
p66
sVDipendra
p67
VDipendra
p68
sVPrasun Pande
p69
VPrasun Pande
p70
sVTwentyashes
p71
VTwentyashes
p72
sVSupport2 sb
p73
VSupport2 sb
p74
sVAtul Sharma
p75
VAtul Sharma
p76
sVGirish
p77
VGirish
p78
sVSuvit
p79
VSuvit
p80
sVChetan sharma
p81
VChetan sharma
p82
sVPranshu Topal
p83
VPranshu Topal
p84
sVRandom7
p85
VRandom7
p86
sVShunya
p87
VShunya
p88
sVRupeshKirmirwar
p89
VRupesh Kirmirwar
p90
sVRamdon007++
p91
VRamdon007++
p92
sVVirendrasinh Gohil 
p93
VVirendrasinh Gohil 
p94
sVPramod
p95
VPramod
p96
sVChirag Kankariya
p97
VChirag Kankariya
p98
sVRohit Srivastava
p99
VRohit Srivastava
p100
sVSumeet Kataria
p101
VSumeet Kataria
p102
sVAdityaadiraju
p103
VAdityaadiraju
p104
sVAdmin_SachinS
p105
VAdmin_SachinS
p106
sVProthit
p107
VProthit Majumdar
p108
sVSagar 
p109
VSagar 
p110
sVMatrix
p111
VMatrix
p112
sVXYZ Prediction
p113
VXYZ Prediction
p114
sVVinay Takawale
p115
VVinay Takawale
p116
sVShubham Thakur
p117
VShubham Thakur
p118
sVchawkidaar
p119
Vchawkidaar
p120
sVLights
p121
VVijeth B V
p122
sVOptimus prime
p123
VTushil
p124
sVsachins
p125
Vsachins
p126
sVKAMSY
p127
VKamlesh oswal
p128
sVAnurag
p129
VAnurag
p130
sVAnanta Prasad Kabi
p131
VAnanta Prasad Kabi
p132
sVSneh Mujoo
p133
VSneh Mujoo
p134
sVPRAGATI S
p135
VPRAGATI S
p136
sVAlphaGoShunya
p137
VAlphaGoShunya
p138
sVProthit Majumdar 
p139
VProthit Majumdar 
p140
sVNiraj Diwan
p141
VNiraj Diwan
p142
sVShwet Ketu Haritas
p143
VShwet Ketu Haritas
p144
sVVandana Jindal
p145
VVandana Jindal
p146
sVAnkit jain
p147
VAnkit jain
p148
sVKrishna Bellary
p149
VKrishna
p150
sVYogiDon
p151
VYogiDon
p152
sVRohitRas
p153
VRohit Pattewar 
p154
sVVivek Gorwadkar
p155
VVivek Gorwadkar
p156
sVAnkit Saraf
p157
VAnkit Saraf
p158
sVNikhilesh
p159
VNikhilesh
p160
sVGajanan Lokhande
p161
VGajanan Lokhande
p162
sVArpit saxena
p163
VArpit saxena
p164
sVLalit Mohnani
p165
VLalit Mohnani
p166
sVKiran
p167
VKiran
p168
sVRajesh Gawade
p169
VRajesh Gawade
p170
sVRavi Sharma
p171
VRavi Sharma
p172
sVML Yuva Sena
p173
VML Yuva Sena
p174
sVPrachi
p175
VPrachi
p176
sVrahulsingh
p177
VChowkidar Rahul Singh
p178
sVMSK
p179
VMangesh
p180
sVIPLKiAAG
p181
VIPLKiAAG
p182
sVOmkar
p183
VOmkar
p184
sVAkshata Raikar
p185
VAkshata Raikar
p186
sVsanro1
p187
VSanjay Rokade 
p188
sVPappu
p189
VAvishek J
p190
sVRailSplitter
p191
VRailSplitter
p192
sVAladdin
p193
VAladdin
p194
sVsuperman
p195
Vsuperman
p196
sVAvik Chakraborty
p197
VAvik Chakraborty
p198
sVSorcerers Reloaded
p199
VSorcerers Reloaded
p200
sVRandom7Killer
p201
VRandom7Killer
p202
sVBhalchandra Joshi
p203
VBhalchandra Joshi
p204
sVAvinash Jedhe
p205
VAvinash Jedhe
p206
sVSanidhya
p207
VSanidhya
p208
sVPrabhat
p209
VPrabhat
p210
sVKushaltikmani
p211
VKushaltikmani
p212
sVAkshay Sukhija
p213
VAkshay Sukhija
p214
sVKaram
p215
VKaram
p216
sVMohit Gupta
p217
VMohit Gupta
p218
sVGame Swingers
p219
VGame Swingers
p220
sVPrajwala Srivatsa
p221
VPrajwala Srivatsa
p222
sV#DilSeMI
p223
V#DilSeMI
p224
sVPratyush
p225
VPratyush
p226
sVTushar Patil
p227
VTushar Patil
p228
sVIksha
p229
VIksha
p230
sVoKtopus prediKtus
p231
VoKtopus
p232
sVjkgb
p233
Vjkgb
p234
sVPraveen Shamlal Kithani
p235
VPraveen Shamlal Kithani
p236
s.