(dp0
V
p1
V0x7BdaCcE1A779A1232f1Ca3272d93Fd63c3e48F44
p2
sVPredictors
p3
V0xd11638EA7f93Cf8050a0feD19b9E3546563557FD
p4
sVSagar Pawar
p5
V0x536FDa0763e8f1dB863B7Ed795750D897F722090
p6
sVShekhu
p7
V0x91902e5771b82225b7833d8b9FFbc85B3108623B
p8
sVNovice
p9
V0x7d6393Aa87b4ac3427D7357953b20c7826E27d02
p10
sVJR
p11
V0xCC8D8b086dBed45F087488E3BBb172d4fD67893d
p12
sVSTRICKERS007
p13
V0x5296685B3d0EBDcE47cfbC437e7E9682D58571FD
p14
sVWhistle Podu
p15
V0x2279e1F61524857F45Cd4A3704B623fc50Aaf23e
p16
sVBS
p17
V0x5ad87d6dC529D20f13AAB3dd17c28B1798DD843c
p18
sVAyu
p19
V0x7588f3544607ca636cF83446Fd746E1fd2B10fC7
p20
sVSupriya2805
p21
V0x0518cdb9d6598BCB354B13A67Bbe20Fe2923b779
p22
sVHorisReboot
p23
V0xD3fFcE67293C2bA0521F4BDa4D2d9459063E1766
p24
sVTAS
p25
V0x192B41a5748F1d69f8b745a78F20f558abB988eD
p26
sVITBackbenchers
p27
V0xB9664a7b25c65Ea49e0547540CCa84610dcF3865
p28
sVSandeep K 
p29
V0xB768C03252a81667f60f3a8334077B2049A41412
p30
sVThe Jolly Cricketer
p31
V0x25D0A3c8253a4393c6286Bb1563FF8Bd2F5C4071
p32
sVSmita J
p33
V0xBb7ee534c7B6fF0A62D3ef513Fa7152c4c28f255
p34
sVPravin
p35
V0xa9861c680ac3613b2F0864C867A156b7214Dd771
p36
sVnitrek
p37
V0x2d1EF08D350a5Ff4D1351b9BE26166171c967351
p38
sV4
p39
V0xd31c5ff2216f4d139c05be34c53ecceb629d3280
p40
sVCH7
p41
V0xB96Ec7B19C0de269d610a2F8E12d2c25c16a1102
p42
sV8
p43
V0x085E946AbA16e8AD4acEC35ceE8ddf0aB3EB2177
p44
sVRJ
p45
V0x306D91d6F8672214D13e2533090f8A98A150aebD
p46
sVnidhi
p47
V0xb32009A158c558dAecbf7610E198BcB61d551BD0
p48
sVAnkit
p49
V0x466065CbA08a766B2B71B48a6CbCa88908817351
p50
sVSikander31
p51
V0x02F9eb0C885cA44f95A737574b2eFfD0eabd4052
p52
sVSamyoo7
p53
V0x7b4f86bCa56890108fA4a9FCd0c1dD119967a3B9
p54
sVSanky
p55
V0xD213a31ac1D75A17f47461597488dDb83096Ab0A
p56
sVPacknik
p57
V0x9F0c3Ba110E3E61761992fea58D125f601164ced
p58
sV12
p59
V0x3F2032718DfC65d64c0c21b1Cc9c4E0c7EAB9ae1
p60
sVAshish Joshi 
p61
V0x9698cd9BE5d0773F1bf3E0E572DA2aAA9008DEF4
p62
sVKph
p63
V0x449857D5Fc0674a82e72e53B7C46C089C0A35061
p64
sVNare10
p65
V0x1Fe7877f99C39898C40A6DFc0cB06F346443cBB5
p66
sVNikhil2705
p67
V0x7D9a5C0BD2eE7a7E63f0BBF2D09267c411B5d299
p68
sVTusharpatil
p69
V0xc82f26AeE9b7C72E401103D0182c95C0C1178730
p70
sVmanas
p71
V0x923D23a04bd10918Cb3a5da19adDf4eB26a8F646
p72
sVamol1122
p73
V0xe23D42F84471465e79Fa20854454bdcc96784722
p74
sVDivyaIPL
p75
V0xFd801F94aeD84EaefAdFB5c2ACe77D54E368806E
p76
sVKrishna 
p77
V0x0de75Cdef165c8BF091D22D7f93f5A59BB8C5f6b
p78
sVPuneriBlockChain
p79
V0x4c319522e57061247eB1f7a112b7EF1aAFA0D478
p80
sVTatarus pit
p81
V0xe243Ce7166c8A42F665D9C52429E8ddd6022F18c
p82
sVPratyush
p83
V0x9a07244CC971aE04f6884f7a11E85DB37238c64A
p84
sVNavish
p85
V0x23A75CCC13ea4ac7F79B3Ce822eB3200A00C4883
p86
sVThePredictors
p87
V0x8Eb7B5e80dC8D74fb309Ff4de81aB9cA54271A21
p88
sVN4Narcissist
p89
V0xF1f9E7Cb2581D529b1F5398f64dc76DFaa09186a
p90
sVArun Singh
p91
V0x31CCEBC84B545F19fC918d34bFA96f1d5919d350
p92
sVGsunny
p93
V0x02E55D8e0EE5ebe62434181B0Bd15f8BF10b5BF6
p94
sVIMHSAR
p95
V0xCa7471d8F897cdaf2fd9294B13D20E5669650AD0
p96
sVJkalalsingh
p97
V0x2cBfbc6f2e28Bf871Fd0587fEb2278b7f51d3A5c
p98
sVKunal
p99
V0xCCbeA5EDB29984D4F3D559167FE7f2b51A1142EF
p100
sVRaka
p101
V0xdC376B1119761c785D6D899E1a9ff200b3150288
p102
sV3
p103
V0x029519ef06951fd94132c03ba8c3e2548f281e83
p104
sVpankaj
p105
V0xa63A91EEFc809460350b8cf2800efC2837F85ba8
p106
sVSachin D
p107
V0xDD8c4AE29Def9DB47714e32058A1CA5D51de4940
p108
sV7
p109
V0x580e25f036936b84723d677d74757d76d7b32aaf
p110
sVRandom7
p111
V0xc698F70f80aC18C9C33c7289E6CA55e8B88468D6
p112
sVatul
p113
V0x018Ca9B3373eE423D62f82D4eDE7E2fadFe8EeA7
p114
sVThe Sorcerers !
p115
V0x9DD4D7aDd63637Eb05f5Fc18E6F11F9376ee6AD8
p116
sVTushar
p117
V0x1E54624FcC6f645c0B4c60BB01b9ceD9b059eEC4
p118
sVRavindar
p119
V0x5f21A736CFf6E68B72F8027998d9CCcf15505dAc
p120
sVAala re
p121
V0x2435cb7F131BfDB1797B00D5E767C00327F3DC2D
p122
sVRakesh
p123
V0x42E918FcabB225a70db0392eaF6d80066ebCDc40
p124
sVAmit
p125
V0x17664421d825760920b971327aE18E054BE92669
p126
sVPramod
p127
V0x57c6Cb5683FF474Ff425E40b60eF76540470916b
p128
sVHemant
p129
V0xfdcE80F4ACE9723e874DF236FAdf0BFBC6598818
p130
sVDoremon
p131
V0x6C8d9AcECCC0C718e416AF0221d73C28c0E2B7aC
p132
sVShaktimaan
p133
V0x6ba33fD3cC075D71C48597dF69278FFa3597a4F5
p134
sVML Hunterzz
p135
V0x0b5E606b39B9029C2e4FcED7C97B012eDBa96C59
p136
sVShilpa
p137
V0xa56ae14521Aea1e895042cCe419Ad46a4BED9eBF
p138
sVcvs257
p139
V0x42C09605F6A7a0D5f28EEE57294ae00cb6939Efe
p140
sVonlyAbhinav 
p141
V0xec3677d8b6de530Fcf830A59f03397e2005dFa27
p142
sVThe Predictors
p143
V0x69cF0DeA7806A9A52798dC2CfDE44A5EE4ec481b
p144
sVPIJU
p145
V0xD7550253008C72978E1074d991D097A8F97eBF89
p146
sVAnand
p147
V0xABe03a544Efd8147CE451ceE8cCAA7E895fc400e
p148
sVBhayankars
p149
V0x48693753de326661854077C314E90c80081C1df3
p150
sVMachupiccu
p151
V0x1b6573Fd25887F6b4601915f3AE684f5c6a603CF
p152
sVLalit1548
p153
V0xd35cd516Bd52d839B1c859b8448fDa13490e2A35
p154
sVAtul
p155
V0x0570490d91038Bb5725B2Dadf3FE919fD517B05C
p156
sVOnboarding Super Kings
p157
V0x7B1534F6e3aab1CF8Bb5718aB2010efCB928Eb5A
p158
sV2
p159
V0x4687193d7C4def8A36796795D7Ab865366bC0ED5
p160
sVvarun_vj
p161
V0x700B3D909dE039f330cc3Be7a022C28662E0fe87
p162
sVHORIS_RETURNS
p163
V0x0035BaF4C977838EAD3522e2163bD60fd8649fa2
p164
sV6
p165
V0x627306090abab3a6e1400e9345bc60c78a8bef57
p166
sVGame Changer
p167
V0x6bACFD81f5C6B99494353Ba12199893b26E83941
p168
sVchaudhary
p169
V0x8015B26c75686843357eDfc89C761c0fe7118CF5
p170
sVScorpion
p171
V0x26e477AB2cBB1EB9cd163f800C0DC8274071eaFA
p172
sVMavericks
p173
V0x9BcF3b641A4ff536ABf933e54d7d8bEf25C3D9f1
p174
sVSRK
p175
V0xC0794D3570ef34813c59F7C43D7b4C7Ac5073E1C
p176
sVMakAarti
p177
V0x3305e1D53d235b719D0A267d1fB6d699bB0E1C10
p178
sVIplchamps
p179
V0x8A219C1ae4f068b3B17a6cD7670f2AB7f78D344b
p180
sVChetan Sharma
p181
V0xF9C3832f73ac60e79f00337d701b4e45F8FCc0B9
p182
sVRoyston
p183
V0x90F2bc9aB0e246648da97AE60a2cf5Cc6eD19F5a
p184
sVThe Sorcerers
p185
V0xB1ff063A7F26b4d5bd35369e6561b065e83a77CA
p186
sVSvbipl
p187
V0xa55096ac1B655940db863ab606621CE0F4bcb581
p188
sV11
p189
V0x3F2032718DfC65d64c0c21b1Cc9c4E0c7EAB9ae1 
p190
sVaad
p191
V0x7b2B9dAE510f3027F23A2A94E0f013F454b7989f
p192
sV13
p193
V0x029519Ef06951FD94132C03BA8c3e2548f281e83
p194
sVIplpredictor
p195
V0xe193717dbdB9f1d92C8B7Fbac8D68bab92cb85b4
p196
sVDivyaIPL2
p197
V0x554f8719c9F7a402bA6cd6CC62853ee79170979c
p198
sVRohan
p199
V0x21306b1bed3354a465B856D18D360B98821C99Cf
p200
sVAbhiKulk
p201
V0x950dC7c64A66b86c4d060D4957bd62eD524B8DB1
p202
sVSnehMujoo
p203
V0xc661f5b8A21e3Aec0301240Cdc360D27967493A6
p204
sVArchit 
p205
V0x104e7CbB9ff327Fd6E17F801CF81AE6403C1d280
p206
sVDJ
p207
V0xcd631915f9bC8F66bDc721273C070c07e1852dE1
p208
sVpsk
p209
V0x4904341D8779E10d77036cc209ecfbB2a1bacB8C
p210
sVAflatoon
p211
V0x68C1F10e980db565e9B9F6a1E12f178096e09426
p212
sVsanjayr
p213
V0xa20C66485296f1Dc0667c78Ad57D0ED2455bFa41
p214
sVMSK
p215
V0x0341a6CaA5cbD4230F758D6f74F3F270DE0D6191
p216
sVravindra jain
p217
V0x568A5c518f0DA943756163214149Af4cD52232F3
p218
sVCheetah
p219
V0x1cc6D119B8E5d41995D9C9F2210c7997A9C155A8
p220
sVJT's Team
p221
V0x6c30Cd77e6f4799201A7B97b1Bb7754Dcd5F8196
p222
sVSkull
p223
V0x5C5B3612D03f73bF14132BEBe46FD8c0e12C64FF
p224
sVWarrior55
p225
V0x23DF4df8F639CC846A15839f721B50fEccd843d5
p226
sVIpl-prophecy
p227
V0x437737D6f1366Fb13f3cdaC14cC6a2429d2A0355
p228
sVManny
p229
V0x3dF89767745e7E07A281be5DB39Be37E3b625F60
p230
sVMaddy
p231
V0x9407fF05df9B102eaaF935a209dC7D037BaC831a
p232
sVMac
p233
V0x7a25db56677de938f85696f35b3fe89a80be534e
p234
sV5
p235
V0x085e946aba16e8ad4acec35cee8ddf0ab3eb2177
p236
sVDeep Minds
p237
V0x6B73B8A771A8428DB29dFd0C5fEF6f143EE21218
p238
sV9
p239
V0xd31c5Ff2216f4d139C05Be34C53eCcEb629d3280 
p240
sV10
p241
V0xd31c5Ff2216f4d139C05Be34C53eCcEb629d3280
p242
sVMahi
p243
V0xCFC4A9c2d4D0EE56e2f3e236edf75c391e6C0076
p244
sVSushantm20
p245
V0xAB42Aa9287BeCC40F3e7F4149362dB6D65C7B52a
p246
sVVishwasb
p247
V0x56Af097752628ebA77980Cf2e704dCb29281B993
p248
sVRomesh
p249
V0x511Add398d85FD5E7382210B2DafE07B248bd9e3
p250
sVPooja
p251
V0x8489e3aaA2227be24C0b6708e24b5D93D9Ae6aa8
p252
sVJCB
p253
V0xd5fce01f55CA5c068fa08f0B0Dcf05c2Afa8DFa7
p254
sVMLYS
p255
V0x65b07E64cB0f55477c082a04D3446327D85b1896
p256
sVChet
p257
V0x8D45C2acc0A582CB31baa6BAa761aDE7173c3B7A
p258
sVDanger Danger Creeping Closer 
p259
V0x71De7bcbe8F4e5C54ad7e58856C70C19CdDAb1b3
p260
sVRS
p261
V0x31548Ae0ca7969720f59d9e4f5B926abA255BaBf
p262
sVArchit
p263
V0x353a7d17651bb6746ae4fb774b0a7fda5775c5b7
p264
sVLogan
p265
V0x44A44315d69C4AF27c76B3b5e8C11b5CC92d24b3
p266
sV3EyedRaven
p267
V0x7795270c89d522189272e5EE418B613f7f2F86F3
p268
sVIkillz
p269
V0xBb99C60950F121E146BEF2F328e8c82FF077F97d
p270
sVShip
p271
V0xeADf3aa1d903fcB3d499BB3b6AE94FEa86556c73
p272
s.