(dp0
V
p1
V0x7BdaCcE1A779A1232f1Ca3272d93Fd63c3e48F44
p2
sVRohan DLT
p3
V0xB33fD12e5197F0D1E0Fb40b084f87261e1654B7e
p4
sVPredictors
p5
V0xd11638EA7f93Cf8050a0feD19b9E3546563557FD
p6
sVSagar Pawar
p7
V0x536FDa0763e8f1dB863B7Ed795750D897F722090
p8
sVJEET
p9
V0x0112a247990E919fAA066deDb076e1c4FBAE7280
p10
sVShekhu
p11
V0x91902e5771b82225b7833d8b9FFbc85B3108623B
p12
sVNovice
p13
V0x7d6393Aa87b4ac3427D7357953b20c7826E27d02
p14
sVJR
p15
V0xCC8D8b086dBed45F087488E3BBb172d4fD67893d
p16
sVSTRICKERS007
p17
V0x5296685B3d0EBDcE47cfbC437e7E9682D58571FD
p18
sVWhistle Podu
p19
V0x2279e1F61524857F45Cd4A3704B623fc50Aaf23e
p20
sVRaghav
p21
V0xd868e9644551D62F1C3487bc94159B4Ee1Ae6d15
p22
sVSamreen135
p23
V0x660Bd9576575c013Ab6709dd4174896b328c0Fb7
p24
sVBS
p25
V0x5ad87d6dC529D20f13AAB3dd17c28B1798DD843c
p26
sVAyu
p27
V0x7588f3544607ca636cF83446Fd746E1fd2B10fC7
p28
sVSupriya2805
p29
V0x0518cdb9d6598BCB354B13A67Bbe20Fe2923b779
p30
sVHorisReboot
p31
V0xD3fFcE67293C2bA0521F4BDa4D2d9459063E1766
p32
sVTAS
p33
V0x192B41a5748F1d69f8b745a78F20f558abB988eD
p34
sVNovice rookies
p35
V0xe2480029E0226178Ff891bC1f8b16F7f4607E150
p36
sVITBackbenchers
p37
V0xB9664a7b25c65Ea49e0547540CCa84610dcF3865
p38
sVSandeep K 
p39
V0xB768C03252a81667f60f3a8334077B2049A41412
p40
sVThe Jolly Cricketer
p41
V0x25D0A3c8253a4393c6286Bb1563FF8Bd2F5C4071
p42
sVSmita J
p43
V0xBb7ee534c7B6fF0A62D3ef513Fa7152c4c28f255
p44
sVPravin
p45
V0xa9861c680ac3613b2F0864C867A156b7214Dd771
p46
sVnitrek
p47
V0x2d1EF08D350a5Ff4D1351b9BE26166171c967351
p48
sV4
p49
V0xd31c5ff2216f4d139c05be34c53ecceb629d3280
p50
sVCH7
p51
V0xB96Ec7B19C0de269d610a2F8E12d2c25c16a1102
p52
sV8
p53
V0x085E946AbA16e8AD4acEC35ceE8ddf0aB3EB2177
p54
sVHarshada
p55
V0xBfefb3A01D23AaFB57baD394981E3dB021A21b28
p56
sVRJ
p57
V0x306D91d6F8672214D13e2533090f8A98A150aebD
p58
sVPravinBane
p59
V0x7F7B730A3793eb57f4723dc6d0F62dE895f1BD83
p60
sVnidhi
p61
V0xb32009A158c558dAecbf7610E198BcB61d551BD0
p62
sVR\u20ac\u03c0uK@
p63
V0xD43e8A09F67Cd3D4B5cBD766dF38cc1556371037
p64
sV7
p65
V0x580e25f036936b84723d677d74757d76d7b32aaf
p66
sVSikander31
p67
V0x02F9eb0C885cA44f95A737574b2eFfD0eabd4052
p68
sVSamyoo7
p69
V0x7b4f86bCa56890108fA4a9FCd0c1dD119967a3B9
p70
sVIpllover
p71
V0x252EDD7640E5db216786d9F160da54437B339eD7
p72
sVSanky
p73
V0xD213a31ac1D75A17f47461597488dDb83096Ab0A
p74
sVPacknik
p75
V0x9F0c3Ba110E3E61761992fea58D125f601164ced
p76
sVIplpredictor
p77
V0xe193717dbdB9f1d92C8B7Fbac8D68bab92cb85b4
p78
sVAshish Joshi 
p79
V0x9698cd9BE5d0773F1bf3E0E572DA2aAA9008DEF4
p80
sVKph
p81
V0x449857D5Fc0674a82e72e53B7C46C089C0A35061
p82
sVAmit
p83
V0x17664421d825760920b971327aE18E054BE92669
p84
sVNikhil2705
p85
V0x7D9a5C0BD2eE7a7E63f0BBF2D09267c411B5d299
p86
sVCV Coders
p87
V0xaf49F9eFDfDA7545d962A61F5ce7A86c30cD9A86
p88
sVTusharpatil
p89
V0xc82f26AeE9b7C72E401103D0182c95C0C1178730
p90
sVRas.rohit
p91
V0x68E79aEEa88AFD65372feb7962A99B73A1B34968
p92
sVSac
p93
V0x6e324a83838daC2BdA98ccb0032e8514F681691D
p94
sVmanas
p95
V0x923D23a04bd10918Cb3a5da19adDf4eB26a8F646
p96
sVST20
p97
V0x876f5897EDdebEFceAC097675261384044CD801D
p98
sVRJ_B
p99
V0x17cCa64Dc2c7BD5925E288752E80a8726E972880
p100
sVamol1122
p101
V0xe23D42F84471465e79Fa20854454bdcc96784722
p102
sVRavi
p103
V0x85c51f205F0e6c4865551d27B3516C1bD4cf0b40
p104
sVDivyaIPL
p105
V0xFd801F94aeD84EaefAdFB5c2ACe77D54E368806E
p106
sVSagar
p107
V0x4890272E8D3E9faB32B9FDe829235A6d16b93E7a
p108
sVKrishna 
p109
V0x0de75Cdef165c8BF091D22D7f93f5A59BB8C5f6b
p110
sVWakad Whackers
p111
V0xc9099e90539ee847f0EF8e8184422ca365368078
p112
sVPuneriBlockChain
p113
V0x4c319522e57061247eB1f7a112b7EF1aAFA0D478
p114
sVTatarus pit
p115
V0xe243Ce7166c8A42F665D9C52429E8ddd6022F18c
p116
sVLoneRanger
p117
V0x31B30e05678546Ae7982C8eD4E208E406D01A6c9
p118
sVPratyush
p119
V0x9a07244CC971aE04f6884f7a11E85DB37238c64A
p120
sVNavish
p121
V0x23A75CCC13ea4ac7F79B3Ce822eB3200A00C4883
p122
sVTodu champion
p123
V0xEeCA942273FC235040b3169eE046F86C7469e7F0
p124
sVThePredictors
p125
V0x8Eb7B5e80dC8D74fb309Ff4de81aB9cA54271A21
p126
sVPk
p127
V0xA191eeAe0cB9C552EEd796d35CFaDeACf64fB6FF
p128
sVSushantm20
p129
V0xAB42Aa9287BeCC40F3e7F4149362dB6D65C7B52a
p130
sVArun Singh
p131
V0x31CCEBC84B545F19fC918d34bFA96f1d5919d350
p132
sVGsunny
p133
V0x02E55D8e0EE5ebe62434181B0Bd15f8BF10b5BF6
p134
sVIMHSAR
p135
V0xCa7471d8F897cdaf2fd9294B13D20E5669650AD0
p136
sVOmi
p137
V0xeebAf514323e880fEf5A7ac7C08b009B5cB11523
p138
sVJkalalsingh
p139
V0x2cBfbc6f2e28Bf871Fd0587fEb2278b7f51d3A5c
p140
sVKunal
p141
V0xCCbeA5EDB29984D4F3D559167FE7f2b51A1142EF
p142
sVRaka
p143
V0xdC376B1119761c785D6D899E1a9ff200b3150288
p144
sV3
p145
V0x029519ef06951fd94132c03ba8c3e2548f281e83
p146
sVpankaj
p147
V0xa63A91EEFc809460350b8cf2800efC2837F85ba8
p148
sVSachin D
p149
V0xDD8c4AE29Def9DB47714e32058A1CA5D51de4940
p150
sVAnkit
p151
V0x466065CbA08a766B2B71B48a6CbCa88908817351
p152
sVRandom7
p153
V0xc698F70f80aC18C9C33c7289E6CA55e8B88468D6
p154
sVatul
p155
V0x018Ca9B3373eE423D62f82D4eDE7E2fadFe8EeA7
p156
sVThe Sorcerers !
p157
V0x9DD4D7aDd63637Eb05f5Fc18E6F11F9376ee6AD8
p158
sVjayshree
p159
V0xDCA5363cC4d49042F92578c1644DC73D68AF4255
p160
sVYuvraj
p161
V0x1d4791e3866AD4e21e5a564170c055B4CEF36443
p162
sVTushar
p163
V0x1E54624FcC6f645c0B4c60BB01b9ceD9b059eEC4
p164
sVRavindar
p165
V0x5f21A736CFf6E68B72F8027998d9CCcf15505dAc
p166
sVAala re
p167
V0x2435cb7F131BfDB1797B00D5E767C00327F3DC2D
p168
sVCrickbot
p169
V0xD2ac5EEB03bFb8Ad8fB864a55060CfB2a8294C04
p170
sVRakesh
p171
V0x42E918FcabB225a70db0392eaF6d80066ebCDc40
p172
sVSharma18
p173
V0x0570490d91038Bb5725B2Dadf3FE919fD517B05C
p174
sVPramod
p175
V0x57c6Cb5683FF474Ff425E40b60eF76540470916b
p176
sVHemant
p177
V0xfdcE80F4ACE9723e874DF236FAdf0BFBC6598818
p178
sVDoremon
p179
V0x6C8d9AcECCC0C718e416AF0221d73C28c0E2B7aC
p180
sVShaktimaan
p181
V0x6ba33fD3cC075D71C48597dF69278FFa3597a4F5
p182
sVNiraj
p183
V0x24f61F4FA30770bE8D1b39063b6DC3D70cAFA953
p184
sVPooja
p185
V0x8489e3aaA2227be24C0b6708e24b5D93D9Ae6aa8
p186
sVShilpa
p187
V0xa56ae14521Aea1e895042cCe419Ad46a4BED9eBF
p188
sVcvs257
p189
V0x42C09605F6A7a0D5f28EEE57294ae00cb6939Efe
p190
sVAnkit Jain
p191
V0x35fE1791bc945f3AB875557b98Fddb5B83AbE4DE
p192
sVSparklers
p193
V0x078f03bD81E31cFeec1e4Bf7649Eb8318fa9b138
p194
sVonlyAbhinav 
p195
V0xec3677d8b6de530Fcf830A59f03397e2005dFa27
p196
sVThe Predictors
p197
V0x69cF0DeA7806A9A52798dC2CfDE44A5EE4ec481b
p198
sVDushant
p199
V0xB76Fb489b82291532DCFCc9be8BA7243d1799A8d
p200
sVPIJU
p201
V0xD7550253008C72978E1074d991D097A8F97eBF89
p202
sVAnand
p203
V0xABe03a544Efd8147CE451ceE8cCAA7E895fc400e
p204
sVBhayankars
p205
V0x48693753de326661854077C314E90c80081C1df3
p206
sVPiyushN
p207
V0x86F7107b708aF579aa7543c194a7fbFA7Ef856EA
p208
sVMachupiccu
p209
V0x1b6573Fd25887F6b4601915f3AE684f5c6a603CF
p210
sVNare10
p211
V0x1Fe7877f99C39898C40A6DFc0cB06F346443cBB5
p212
sVLalit1548
p213
V0xd35cd516Bd52d839B1c859b8448fDa13490e2A35
p214
sVsachinmang
p215
V0x4fBE1ae379936CaEf4f28cfDc3623478b9bf2C93
p216
sVTiger
p217
V0x60F0d29c8e64ecEAe475bcCf845D7d4b5D9FC446
p218
sVKavitasolanki15 
p219
V0x804AE22Fb388C542b2fE0A011A6517d45890D356
p220
sVGeniusGirish
p221
V0xA1A769Fc2E2270fd12F749963a9f873598b25CbC
p222
sVKhelo
p223
V0x40F4d6663ca7B692c7B4BdE028F42ab804381ed5
p224
sVPrerika
p225
V0xcf7fea22fC2A486c782b0e49222B8a571bA6581D
p226
sVOnboarding Super Kings
p227
V0x7B1534F6e3aab1CF8Bb5718aB2010efCB928Eb5A
p228
sV2
p229
V0x4687193d7C4def8A36796795D7Ab865366bC0ED5
p230
sVvarun_vj
p231
V0x700B3D909dE039f330cc3Be7a022C28662E0fe87
p232
sVHORIS_RETURNS
p233
V0x0035BaF4C977838EAD3522e2163bD60fd8649fa2
p234
sV6
p235
V0x627306090abab3a6e1400e9345bc60c78a8bef57
p236
sVGame Changer
p237
V0x6bACFD81f5C6B99494353Ba12199893b26E83941
p238
sVchaudhary
p239
V0x8015B26c75686843357eDfc89C761c0fe7118CF5
p240
sVScorpion
p241
V0x26e477AB2cBB1EB9cd163f800C0DC8274071eaFA
p242
sVMavericks
p243
V0x9BcF3b641A4ff536ABf933e54d7d8bEf25C3D9f1
p244
sVSRK
p245
V0xC0794D3570ef34813c59F7C43D7b4C7Ac5073E1C
p246
sVMakAarti
p247
V0x3305e1D53d235b719D0A267d1fB6d699bB0E1C10
p248
sVSwets 
p249
V0x93217CFb7c236BDC4AB6ee84fcC650080F432cEE
p250
sVIplchamps
p251
V0x8A219C1ae4f068b3B17a6cD7670f2AB7f78D344b
p252
sVChetan Sharma
p253
V0xF9C3832f73ac60e79f00337d701b4e45F8FCc0B9
p254
sVRoyston
p255
V0x90F2bc9aB0e246648da97AE60a2cf5Cc6eD19F5a
p256
sVAshu
p257
V0x9CEcD0756B011E522867552a39fd1BfcfE16eCA5
p258
sVThe Sorcerers
p259
V0xB1ff063A7F26b4d5bd35369e6561b065e83a77CA
p260
sVCricfrenz.com
p261
V0x27E6485D349b3939eC8Bd2378A5A0c3eD9526705
p262
sVSvbipl
p263
V0xa55096ac1B655940db863ab606621CE0F4bcb581
p264
sV11
p265
V0x3F2032718DfC65d64c0c21b1Cc9c4E0c7EAB9ae1 
p266
sVaad
p267
V0x7b2B9dAE510f3027F23A2A94E0f013F454b7989f
p268
sV13
p269
V0x029519Ef06951FD94132C03BA8c3e2548f281e83
p270
sV12
p271
V0x3F2032718DfC65d64c0c21b1Cc9c4E0c7EAB9ae1
p272
sVTush_DevD
p273
V0xF614BAAb0Cc6D5bDB412d013e7F66B51D113D79c
p274
sVDivyaIPL2
p275
V0x554f8719c9F7a402bA6cd6CC62853ee79170979c
p276
sVFrenzied 
p277
V0x7BBd0D6CFC145135F5d7596351101e3a973dFE5b
p278
sVRohan
p279
V0x21306b1bed3354a465B856D18D360B98821C99Cf
p280
sVDhruv
p281
V0x6dC6d61B05eD1756fBA7E73ee5B5e1e97C4C6E9D
p282
sVPinks
p283
V0x209bA11Df594210a69F64427884A7938dfcf2f91
p284
sVAbhiKulk
p285
V0x950dC7c64A66b86c4d060D4957bd62eD524B8DB1
p286
sVDabangHero
p287
V0xdE05C3C207F4B09c3538B31eA3c1Fb039d1FC734
p288
sVSnehMujoo
p289
V0xc661f5b8A21e3Aec0301240Cdc360D27967493A6
p290
sVArchit 
p291
V0x104e7CbB9ff327Fd6E17F801CF81AE6403C1d280
p292
sVDJ
p293
V0xcd631915f9bC8F66bDc721273C070c07e1852dE1
p294
sVpsk
p295
V0x4904341D8779E10d77036cc209ecfbB2a1bacB8C
p296
sV999999999
p297
V0x43A65B80e729406b15A855CD9E3d4aB8e54B248A
p298
sVAflatoon
p299
V0x68C1F10e980db565e9B9F6a1E12f178096e09426
p300
sVMSG
p301
V0x403766729F7Aea86bc589DE87070Cbd627f9bA15
p302
sVsanjayr
p303
V0xa20C66485296f1Dc0667c78Ad57D0ED2455bFa41
p304
sVMSK
p305
V0x0341a6CaA5cbD4230F758D6f74F3F270DE0D6191
p306
sVSnehal
p307
V0xc2891aD7E8F3E6fC0EBFdd15Bf94DFf696488FEd
p308
sVravindra jain
p309
V0x568A5c518f0DA943756163214149Af4cD52232F3
p310
sVCheetah
p311
V0x1cc6D119B8E5d41995D9C9F2210c7997A9C155A8
p312
sVMonica
p313
V0x0325b90d0A871c9bC96485A932E1e326226628fc
p314
sVJT's Team
p315
V0x6c30Cd77e6f4799201A7B97b1Bb7754Dcd5F8196
p316
sVSkull
p317
V0x5C5B3612D03f73bF14132BEBe46FD8c0e12C64FF
p318
sVUrvi
p319
V0x7d268FA6aBF6d37d47Fd521CAe8c491f115399d1
p320
sVWarrior55
p321
V0x23DF4df8F639CC846A15839f721B50fEccd843d5
p322
sVIpl-prophecy
p323
V0x437737D6f1366Fb13f3cdaC14cC6a2429d2A0355
p324
sVMaddy
p325
V0x9407fF05df9B102eaaF935a209dC7D037BaC831a
p326
sVMac
p327
V0x7a25db56677de938f85696f35b3fe89a80be534e
p328
sV5
p329
V0x085e946aba16e8ad4acec35cee8ddf0ab3eb2177
p330
sVDeep Minds
p331
V0x6B73B8A771A8428DB29dFd0C5fEF6f143EE21218
p332
sV9
p333
V0xd31c5Ff2216f4d139C05Be34C53eCcEb629d3280 
p334
sVViren
p335
V0x7CE50118BBc4208df6c6127bDe4560e44C04bf59
p336
sVDesiBoys
p337
V0x973462E09B540f877FD3329cbfcF48a711c2aB10
p338
sV10
p339
V0xd31c5Ff2216f4d139C05Be34C53eCcEb629d3280
p340
sVMahi
p341
V0xCFC4A9c2d4D0EE56e2f3e236edf75c391e6C0076
p342
sVN4Narcissist
p343
V0xF1f9E7Cb2581D529b1F5398f64dc76DFaa09186a
p344
sVVishwasb
p345
V0x56Af097752628ebA77980Cf2e704dCb29281B993
p346
sVAK
p347
V0xA0387Dc3c0b7f2D5c558BDc5A4B829E379CC8E9E
p348
sVRomesh
p349
V0x511Add398d85FD5E7382210B2DafE07B248bd9e3
p350
sVScavanger
p351
V0x61e457D70C83893d790cb13AA4285564B3E9ce3f
p352
sVML Hunterzz
p353
V0x0b5E606b39B9029C2e4FcED7C97B012eDBa96C59
p354
sVPeeyush sodhia
p355
V0x5e1E98cEe9056A7C632cC6635AF925C467e974B1
p356
sVJCB
p357
V0xd5fce01f55CA5c068fa08f0B0Dcf05c2Afa8DFa7
p358
sVSjyptr
p359
V0x67F0971f6b2d97cd01027f52Fae731c3472dFcc8
p360
sVTJ
p361
V0x8D42cF17d8843628Ed5968F8A142F07C67478a24
p362
sVMLYS
p363
V0x65b07E64cB0f55477c082a04D3446327D85b1896
p364
sVMyBestTeam
p365
V0xf1F6F3c15f5Ab6736652787800b778880861fBCf
p366
sVChet
p367
V0x8D45C2acc0A582CB31baa6BAa761aDE7173c3B7A
p368
sVDanger Danger Creeping Closer 
p369
V0x71De7bcbe8F4e5C54ad7e58856C70C19CdDAb1b3
p370
sVRupeshK
p371
V0xB7dce33e9fbC73Ec079F05E0e4a56916831Bff60
p372
sVRS
p373
V0x31548Ae0ca7969720f59d9e4f5B926abA255BaBf
p374
sVDeep
p375
V0x43A1f398B757DEB15C09A77DF96700A9c70c4237
p376
sVArchit
p377
V0x353a7d17651bb6746ae4fb774b0a7fda5775c5b7
p378
sVManny
p379
V0x3dF89767745e7E07A281be5DB39Be37E3b625F60
p380
sV3EyedRaven
p381
V0x7795270c89d522189272e5EE418B613f7f2F86F3
p382
sVIkillz
p383
V0xBb99C60950F121E146BEF2F328e8c82FF077F97d
p384
sVShip
p385
V0xeADf3aa1d903fcB3d499BB3b6AE94FEa86556c73
p386
sVgjain
p387
V0x6C96532d9DB924E4ed82d2b0017C906734AF2665
p388
s.