(dp0
VCoolrider
p1
V0xc6cA21f937ad48439d9F64052568687e5446c603
p2
sVFlash
p3
V0xedeCDe2E86B08226A934d105C77C96768FCfbF60
p4
sVTanay Mathur
p5
V0x28C8870D00613fA4891786f7b7aBE0A6554fDc16
p6
sVAarti M
p7
V0x82361Ac015A000066C051B1A4f3407C8e946918a
p8
sVjb202038
p9
V0x029519Ef06951FD94132C03BA8c3e2548f281e83
p10
sVipljunky
p11
V0xaDF23BcdF9cb4f04111fB8D8583500644fD5f51c
p12
sVMangesh
p13
V0x044c3f4F5a30249d91384047b70B9Bb99E43B093
p14
sVMatrix
p15
V0xCDc63E739aCD3b483b3e7cA1A70f794fB86BdAaD
p16
sVWillSmith
p17
V0x94Fb1f84f486FA517A07e46cc8977cd37f33F493
p18
sVChetan sharma
p19
V0x46A224e7A96025FE6aF457B18D1D240FdE47258b
p20
sVChacha
p21
V0x2841d0429E7D8a2a2Cfb47f06A4c9E3EfceD01b2
p22
sVJi
p23
V0x767e495a644B3402C4793E2A90CAddEe00841651
p24
sVBhalchandra Joshi
p25
V0xb01b05b3408070dA647fBB606E4C71B6D123a06d
p26
sV@Garib_Insaan
p27
V0xaE79A0D2D08c685028F7645eA61015bC108D869e
p28
sVHarshada
p29
V0xA2F4dEa89C0AEa2B9d052510ad6338688AA3d3ec
p30
sVKiran Kumar Pabboji 
p31
V0x75D1E6656B36bB4f4136176BC5e6e0A26BDF5fbF
p32
sVKrishna
p33
V0x34d468911b35972135bE8FcE696844213699aB00
p34
sVOmkar
p35
V0xb2b285eC627640388BE46c19178b04C663f2f68A
p36
sVJeet
p37
V0x59Bc74C56D9c6D5247e889245b7df199344Ab45C
p38
sVSomesh
p39
V0x44d48FDE5E5f1116490B6D9C549AA8be3924b2e5
p40
sVPacknik
p41
V0xF5f5BbE82129002dDF5527CD138e10F1A46301Ca
p42
sVShirishT20
p43
V0x727A6f38be1A5a532De9c1839BcFBa719F4eA231
p44
sVGajanan
p45
V0x6A7141A7728fa43568271823CAd7719C2877438E
p46
sVthegodfather
p47
V0x93EA5285074924ce6A1aC16036a7B6DD75F81947
p48
sVHimanshu Hansaria
p49
V0x87F65dE25f8193Df60c7AC39B9e4b8e3431f42CC
p50
sVNeeraj Kumar
p51
V0x92677df12afAC77CF0ac2E1879E81038bd37C22F
p52
sVCSK Fan
p53
V0xaC53520Ffe2072398001AE05d7e7C9f850280a70
p54
sVRam
p55
V0xc76f3c91f628C93b4a8F7ba10c649Fc90bd7997F
p56
sVRabi Patro
p57
V0x036899047Ca411AaBAfF8b7EaDCc2224d0730877
p58
sVAdmin_PP
p59
V0x314Da668b2e2618C7590248C3FE36D695925b2c4
p60
sVa_m_a_n
p61
V0x70c4e74799290b858B9E5D95673D134a5e94E90C
p62
sVVarun samant
p63
V0xBaA31ae408108A615bEBBDD414AA39E0d1634395
p64
sVPankajk
p65
V0x9954De08fE189b4637527848E1b3465596037D9b
p66
sVMOHD AQUIB
p67
V0xC8fdB5370311Aa266A4Cd5253Bf3100fdb5Ec873
p68
sVSanidhya 
p69
V0x51a9C63EBAaB4b5735617FA4cc05e7cD82D83BC4
p70
sVJyoti singh
p71
V0xa442BADE1Fc599c28C83e0f73Acb51e9DeBAf37F
p72
sVKunalG
p73
V0xD5cC71CB870747A6AB4dEF661D5CCa7bbd1404a3
p74
sVJerome
p75
V0x3d686b21214ebe8A2663E1824591c64a63Ae1075
p76
sVPrashant Gupta
p77
V0xF02739da192006d4F6b089fA839262938d4337ac
p78
sVKunal Maheshwari
p79
V0xAC924217A6e7a09E9B335068B64Fc441819A192c
p80
sVak2605
p81
V0x1F33D43e6D5197Fd63dDC6770C227B34F3602496
p82
sVChaitanya
p83
V0x2e37E44e598A7E34F94C4A6E36160956293812e6
p84
sVMachineBeast
p85
V0x7C8d9f3D0E45214DAFa248BcBD0eD147fC9a82Bd
p86
sVDipendra
p87
V0x2cc704077Ef0DfaED6b5C0af65D44558d26B25e1
p88
sVPrasun Pande
p89
V0x4688cDaD56684CAbE81ee6A995656E21Bc6F4c2d
p90
sVTwentyashes
p91
V0x4857B97feb1C94cC0fE72390deE4aB052df66107
p92
sVSagar Deshmukh
p93
V0x4890272E8D3E9faB32B9FDe829235A6d16b93E7a
p94
sVSupport2 sb
p95
V0x866C9eCf5d2cbf8D897B2944eEAFAbBceA50A668
p96
sVNeeraj-build
p97
V0xCA53E00624629faB26d6cd42a6F48AF9193fEC2D
p98
sVAtul Sharma
p99
V0x720D0c0F3Fe0803E69832ae12CdF424212D63B42
p100
sVGirish
p101
V0x5D9fD8620B95A51c33868f408Db70D6BC39CFEC7
p102
sVSuvit
p103
V0xa603D25D9C2318BAAB38621BD66227dc142c84BC
p104
sVSupport_PP
p105
V0x10114bDd7E248054cA7d3ecA3683190314A40F7c
p106
sVPranshu Topal
p107
V0xf1bcf80709A8efBBc6134d3055Ae2cB778fA7700
p108
sVRandom7
p109
V0x21b5357d0bF687843aDeEA7e80C6477053c46c17
p110
sVRavi
p111
V0xe843276995787945BC9aac386f152a3c9189EC6f
p112
sVResearch Machines
p113
V0x97319b747Eb20Fcf43A7bdF221Fe8eD7D0759D65
p114
sVShunya
p115
V0x0C00959b7Fac6af348c471951EfAE148Bc182E70
p116
sVRupeshKirmirwar
p117
V0x77C61D5Df8759cef69DB539f88BD014ab2C10440
p118
sVAksS
p119
V0x7B1bd3b475ACA7E38CCa1615a7e631c3D36Be838
p120
sVRamdon007++
p121
V0x0057B9A188Aaf10FB2004D85a883090Db7B11B22
p122
sVVirendrasinh Gohil 
p123
V0x7CE50118BBc4208df6c6127bDe4560e44C04bf59
p124
sVPramod
p125
V0x19FBBD48AF979f2De242E488a84257D29bD15cBF
p126
sVChirag Kankariya
p127
V0x7880C5d71ffb66E27a9898bBA510F53458503C4d
p128
sVRohit Srivastava
p129
V0x09abDeB06799bf6a66121de92e441b2643E6F72E
p130
sVSumeet Kataria
p131
V0x73E6d0879f3A796E9a407671B4329b60f2700fb4
p132
sVJeromeML
p133
V0x017c3F810c4Ca10b623F5FF09FaAEd5E3B058d69
p134
sVAdityaadiraju
p135
V0xC36098a91A3bD50eC4A4cD94812A84B22BaC3017
p136
sVAnand
p137
V0x65d9Be87b91f047A570e3d22b2A683B81E5Bdc8C
p138
sVJadu
p139
V0x5E6EE60b2993466Dbec095e26D5227c832A47Eb6
p140
sVAdmin_SachinS
p141
V0x4687193d7C4def8A36796795D7Ab865366bC0ED5
p142
sVProthit
p143
V0xf058629952eB3Ef5229920d267cB48c3Ef55aCeC
p144
sVSagar 
p145
V0x7Ce21fd6242CD7E5Ffc23b2E3cdd9931Bf7f4738
p146
sVSarang Chauhan 
p147
V0xd8C3F67F3F62baD979afbF2Bcc8dce3d7F305bC7
p148
sVXYZ Prediction
p149
V0x7103209f00BDe90DFabbe17b13Ac0836554326b1
p150
sVVinay Takawale
p151
V0xA2c3dD5333c9B01B956AC3D0566Dc8a8e8a0f39F
p152
sVShubham Thakur
p153
V0x0Ea7DaBBD4CB4557b87AFbC5170047881318049F
p154
sVchawkidaar
p155
V0x3D1541B00bB2FA515a45FB323f186aF388dEDaEE
p156
sVLights
p157
V0x9dc10fEfAf98c5CE740279B57C03210Be4F2772C
p158
sVSrikanth
p159
V0x1aF71b29DF3C39dd2B17E308D2852bDef13AEE04
p160
sVOptimus prime
p161
V0x6C4E19b45398057DBE16EEC5f04a836f71b65aDC
p162
sVGame Swingers
p163
V0xb4a0Fb49de160Eb8BE526c0a0bC64363cf9f6CB0
p164
sVsachins
p165
V0x9e93197e6f19c5e0654d3243c15e844f6a66d742
p166
sVArks
p167
V0xe536f98B93813Ec99412836a464dD9894831bF7e
p168
sVKAMSY
p169
V0x12883267298A5666e68e1379Fb99DEc591b2C700
p170
sVAnurag
p171
V0x48191c9860d21528b24188b2d0415b3D0145Fc1E
p172
sVPehchaan Kaun
p173
V0x70Ae23dB2a3D42c920910A2BF2a658B3ce0fD047
p174
sVAnanta Prasad Kabi
p175
V0xB8Cbc5f706Ca4eFbd0eC52FF6a3e89d7b1DCEcCB
p176
sVSneh Mujoo
p177
V0x7F281966076Fd1404c07C62f96C9983589eEDF4D
p178
sVVandy
p179
V0x051e6A6d93b09aeaAeEdaC7C59c865B5E9E6adab
p180
sVPRAGATI S
p181
V0x3Bd5C646710cf996Ad67e833f2d9b923132046dc
p182
sVAlphaGoShunya
p183
V0x51859A271e9ff4D54fC39C17693F1727627F0865
p184
sVProthit Majumdar 
p185
V0x107ab29EF6432b2FF5a22FFC9dBF832305dD2Ce3
p186
sVNiraj Diwan
p187
V0x80d2c90B8C31F6eEEA31adEe76D72B188F96D061
p188
sVTanvirs 
p189
V0xdC757B4b5f6E4A6f9110BeF60D6b1dCEFcee1C58
p190
sVShwet Ketu Haritas
p191
V0x20A249c969cE74C8F9A3Fe1B8192fC7428f7CAc6
p192
sVShunya_Reloaded
p193
V0xa9C6C76831ff76C77EAb9507eD1B177A95895B75
p194
sVWingu
p195
V0x989D9eF2E5BeEDf7A16aF66E45993B496d90B884
p196
sVAnkit jain
p197
V0x3A14C421F313fb944158D703cAF74aAb8A5a069d
p198
sVanthony
p199
V0xc3C06b7F4a5bFC265449b43170df5a0d26bdDc47
p200
sVKrishna Bellary
p201
V0xcfBDd39564799834a8AA02c6A90E2631A432CA66
p202
sVYogiDon
p203
V0xE59156Be85ece7983511A6F8019525Eadc03c3aA
p204
sVRohitRas
p205
V0x25dC0e5A62f349Ae07529afBEbd1e57C153f0Eaf
p206
sVAustin
p207
V0xF2AF2FfBc98835939c76ece062716E9e3305281A
p208
sVVivek Gorwadkar
p209
V0x698DbF061d643c5d103f4f2E82F7d314777D432f
p210
sVAnkit Saraf
p211
V0x1BdB1300383d942Bb7133D02C1B63135C6E90F5c
p212
sVNikhilesh
p213
V0x57d05FED913088194460894Dcc4Cb31F0A5671c0
p214
sVML YUV SENA
p215
V0x7EAC48004C99cf5479f81B93eD031c74ee556883
p216
sVArpit saxena
p217
V0x9b4db6D7eB0a4fAdE4cD9b1059A7f3780B7aF9eB
p218
sVLalit Mohnani
p219
V0x01e491E38A14Ebd7E6419F5581762CBEc8260F52
p220
sVKiran
p221
V0x164732a3fcF8b36dAD8C6bfD11918c56b1A54c3b
p222
sVRajesh Gawade
p223
V0x652e530Bb721a5A964359148CB415E38C3A8B655
p224
sVRavi Sharma
p225
V0xd43f53143EE0f169B3Ead8cdA588B0583F13C548
p226
sVRavi2 Sharma
p227
V0x9c4FaAdde73EFB3b8c64a882B0E1410Cf7eE1791
p228
sVJignesh
p229
V0x0505E52b2F1739AbBC9fEa385Ba9f04b7a9597Ac
p230
sVVandana Jindal
p231
V0x5F66bE2290E9C1cdce674C9d78F660E0fB2bd743
p232
sVAbhijit
p233
V0x9C30d6B023A0374262f7C7eB37C5ee3bD1257310
p234
sVPrachi
p235
V0xC6eC9aa1935c31c98273F6366fe7B49511bC5CB9
p236
sVPrajakta
p237
V0x2296882Df3eEb541BDbA55C1a5895dB99b53881C
p238
sVrahulsingh
p239
V0xBD521485B66510F2b06bD2696EB2Cb0F39f7a6FC
p240
sVMSK
p241
V0x0b8b6fE573aF299684a0990f90Da330F683A7C61
p242
sVIPLKiAAG
p243
V0x620500fa7efe7FF3a67DD6ffcE73d0f82d19f056
p244
sVML Yuva Sena
p245
V0xEB5aE75Cb9A623EFB761d78fC9427b785D99bC1B
p246
sVAkshata Raikar
p247
V0x377992166266E2DdA97CBd3f46B9952A34aCEce4
p248
sVsanro1
p249
V0x478E12D50970071047814aeEA70a8402968822EA
p250
sVPappu
p251
V0x3eE2Ccd95558dD586489972f9b1Ba06D8eE083b5
p252
sVRailSplitter
p253
V0x20e7DB048A799b34eDE83A8431033AdCF5eF1c6b
p254
sVAladdin
p255
V0xCFa820A77c50883805497988ee02faAA866ed68F
p256
sVsuperman
p257
V0x6ba33fD3cC075D71C48597dF69278FFa3597a4F5
p258
sVmohitml
p259
V0x71F70e7e5b62dca763e84062E26c976E1D33a49A
p260
sVSudhir 
p261
V0x292A088780513e080aa74Bb080961407f356538A
p262
sVAvik Chakraborty
p263
V0xF75d468AC8833b6c8AA1B3138C0A79F1F2968f09
p264
sVSorcerers Reloaded
p265
V0x81c08AfCe9c26A8E97acEF91969610d07a03d527
p266
sVTS
p267
V0x4C92ad293E2ff846FfA6dBb9599b24Ef7910Ae5B
p268
sVRandom7Killer
p269
V0x3C1C5a4Fe2a20B0702426f3580A01F8212b94Ae1
p270
sVSanyam Shrivastava
p271
V0x4806639B1186EDfb9F3a3656Ed4122F1220509e7
p272
sVsiddharth
p273
V0xcC80f86422D9ee4082d1Dcec7014722c493315f8
p274
sVAvinash Jedhe
p275
V0x79E565fD0FD376818Ae086FC25da448a2FF18Ddc
p276
sVSanidhya
p277
V
p278
sVPrabhat
p279
V0xb81E269F5D2658eF5B1c74FEE7A69F1Fb1a85043
p280
sVKushaltikmani
p281
V0xdDe4Ef25E0A5c4A17c8f71eF702c7AF9aE66DBCe
p282
sVpankaj007
p283
V0x783a2Ad0889E8F9189323386936Beebb50BDDEC7
p284
sVVJ
p285
V0xa5Fae895E251A4084861Ab3FFbB03089eBc04e96
p286
sVAkshay Sukhija
p287
V0x8917A4FF8F99470B9414E49735E194Fb6884da22
p288
sVKaram
p289
V0xa75A66f0B029979189F75E0D2fa4B51704Fcaf93
p290
sVMohit Gupta
p291
V0x8C5B4d31920435B6d0b9C49893675b920970ff60
p292
sV@zawarm
p293
V0x9756005A3200f04b09b27509826224f737069Aca
p294
sVml junky
p295
V0x73D8273170497Ec1A2039C15B9E1d1B07F9D0AA3
p296
sVPrajwala Srivatsa
p297
V0xA7939BfB7f6eB24400089B4E15fFA41cBAc39E00
p298
sV#DilSeMI
p299
V0x2d1EF08D350a5Ff4D1351b9BE26166171c967351
p300
sVPratyush
p301
V0xc5B197716f8bC0840D7D7034EF577b643A5Ee436
p302
sVTushar Patil
p303
V0xc5d52c225AF6779994A324126967763Dc9E1c1A3
p304
sVIksha
p305
V0x328A8868f05139bb93e869Cb0F345e1D5B344f58
p306
sVoKtopus prediKtus
p307
V0x1346C1876553f817ACB9AC35c4f522CBF9Ec2e15
p308
sVMlp
p309
V0xEda93DC926901Ce34D8603d61Ed0D22B2198b515
p310
sVjkgb
p311
V0x7e1Cbee4b0300399BacC1ADeA2D84d4A039f14bc
p312
sVAayush
p313
V0x5064330c99e737ED72F754c1F5630B6eBb2780F3
p314
sVPraveen Shamlal Kithani
p315
V0x575c22123D9845A222f23E988d45A485AaA25ecf
p316
s.