(dp0
VCoolrider
p1
V0xc6cA21f937ad48439d9F64052568687e5446c603
p2
sVFlash
p3
V0xedeCDe2E86B08226A934d105C77C96768FCfbF60
p4
sVTanay Mathur
p5
V0x28C8870D00613fA4891786f7b7aBE0A6554fDc16
p6
sVAarti M
p7
V0x82361Ac015A000066C051B1A4f3407C8e946918a
p8
sVipljunky
p9
V0xaDF23BcdF9cb4f04111fB8D8583500644fD5f51c
p10
sVMangesh
p11
V0x044c3f4F5a30249d91384047b70B9Bb99E43B093
p12
sVSarang Chauhan 
p13
V0xd8C3F67F3F62baD979afbF2Bcc8dce3d7F305bC7
p14
sVCSK Fan
p15
V0xaC53520Ffe2072398001AE05d7e7C9f850280a70
p16
sVWillSmith
p17
V0x94Fb1f84f486FA517A07e46cc8977cd37f33F493
p18
sVSupport_PP
p19
V0x10114bDd7E248054cA7d3ecA3683190314A40F7c
p20
sVChacha
p21
V0x2841d0429E7D8a2a2Cfb47f06A4c9E3EfceD01b2
p22
sVsiddharth
p23
V0xcC80f86422D9ee4082d1Dcec7014722c493315f8
p24
sV@Garib_Insaan
p25
V0xaE79A0D2D08c685028F7645eA61015bC108D869e
p26
sVKiran Kumar Pabboji 
p27
V0x75D1E6656B36bB4f4136176BC5e6e0A26BDF5fbF
p28
sVKrishna
p29
V0x34d468911b35972135bE8FcE696844213699aB00
p30
sVJeet
p31
V0x59Bc74C56D9c6D5247e889245b7df199344Ab45C
p32
sVShirishT20
p33
V0x727A6f38be1A5a532De9c1839BcFBa719F4eA231
p34
sVthegodfather
p35
V0x93EA5285074924ce6A1aC16036a7B6DD75F81947
p36
sVHimanshu Hansaria
p37
V0x87F65dE25f8193Df60c7AC39B9e4b8e3431f42CC
p38
sVNeeraj Kumar
p39
V0x92677df12afAC77CF0ac2E1879E81038bd37C22F
p40
sVTanvirs 
p41
V0xdC757B4b5f6E4A6f9110BeF60D6b1dCEFcee1C58
p42
sVRabi Patro
p43
V0x036899047Ca411AaBAfF8b7EaDCc2224d0730877
p44
sVAdmin_PP
p45
V0x314Da668b2e2618C7590248C3FE36D695925b2c4
p46
sVVarun samant
p47
V0xBaA31ae408108A615bEBBDD414AA39E0d1634395
p48
sVMOHD AQUIB
p49
V0xC8fdB5370311Aa266A4Cd5253Bf3100fdb5Ec873
p50
sVAksS
p51
V0x7B1bd3b475ACA7E38CCa1615a7e631c3D36Be838
p52
sVJyoti singh
p53
V0xa442BADE1Fc599c28C83e0f73Acb51e9DeBAf37F
p54
sVKunalG
p55
V0xD5cC71CB870747A6AB4dEF661D5CCa7bbd1404a3
p56
sVJerome
p57
V0x3d686b21214ebe8A2663E1824591c64a63Ae1075
p58
sVPrashant Gupta
p59
V0xF02739da192006d4F6b089fA839262938d4337ac
p60
sVKunal Maheshwari
p61
V0xAC924217A6e7a09E9B335068B64Fc441819A192c
p62
sVak2605
p63
V0x1F33D43e6D5197Fd63dDC6770C227B34F3602496
p64
sVChaitanya
p65
V0x2e37E44e598A7E34F94C4A6E36160956293812e6
p66
sVDipendra
p67
V0x2cc704077Ef0DfaED6b5C0af65D44558d26B25e1
p68
sVPrasun Pande
p69
V0x4688cDaD56684CAbE81ee6A995656E21Bc6F4c2d
p70
sVTwentyashes
p71
V0x4857B97feb1C94cC0fE72390deE4aB052df66107
p72
sVSupport2 sb
p73
V0x866C9eCf5d2cbf8D897B2944eEAFAbBceA50A668
p74
sVAtul Sharma
p75
V0x720D0c0F3Fe0803E69832ae12CdF424212D63B42
p76
sVGirish
p77
V0x5D9fD8620B95A51c33868f408Db70D6BC39CFEC7
p78
sVSuvit
p79
V0xa603D25D9C2318BAAB38621BD66227dc142c84BC
p80
sVChetan sharma
p81
V0x46A224e7A96025FE6aF457B18D1D240FdE47258b
p82
sVPranshu Topal
p83
V0xf1bcf80709A8efBBc6134d3055Ae2cB778fA7700
p84
sVRandom7
p85
V0x21b5357d0bF687843aDeEA7e80C6477053c46c17
p86
sVShunya
p87
V0x0C00959b7Fac6af348c471951EfAE148Bc182E70
p88
sVRupeshKirmirwar
p89
V0x77C61D5Df8759cef69DB539f88BD014ab2C10440
p90
sVRamdon007++
p91
V0x0057B9A188Aaf10FB2004D85a883090Db7B11B22
p92
sVVirendrasinh Gohil 
p93
V0x7CE50118BBc4208df6c6127bDe4560e44C04bf59
p94
sVPramod
p95
V0x19FBBD48AF979f2De242E488a84257D29bD15cBF
p96
sVChirag Kankariya
p97
V0x7880C5d71ffb66E27a9898bBA510F53458503C4d
p98
sVRohit Srivastava
p99
V0x09abDeB06799bf6a66121de92e441b2643E6F72E
p100
sVSumeet Kataria
p101
V0x73E6d0879f3A796E9a407671B4329b60f2700fb4
p102
sVAdityaadiraju
p103
V0xC36098a91A3bD50eC4A4cD94812A84B22BaC3017
p104
sVAdmin_SachinS
p105
V0x4687193d7C4def8A36796795D7Ab865366bC0ED5
p106
sVProthit
p107
V0xf058629952eB3Ef5229920d267cB48c3Ef55aCeC
p108
sVSagar 
p109
V0x7Ce21fd6242CD7E5Ffc23b2E3cdd9931Bf7f4738
p110
sVMatrix
p111
V0xCDc63E739aCD3b483b3e7cA1A70f794fB86BdAaD
p112
sVXYZ Prediction
p113
V0x7103209f00BDe90DFabbe17b13Ac0836554326b1
p114
sVVinay Takawale
p115
V0xA2c3dD5333c9B01B956AC3D0566Dc8a8e8a0f39F
p116
sVShubham Thakur
p117
V0x0Ea7DaBBD4CB4557b87AFbC5170047881318049F
p118
sVchawkidaar
p119
V0x3D1541B00bB2FA515a45FB323f186aF388dEDaEE
p120
sVLights
p121
V0x9dc10fEfAf98c5CE740279B57C03210Be4F2772C
p122
sVOptimus prime
p123
V0x6C4E19b45398057DBE16EEC5f04a836f71b65aDC
p124
sVsachins
p125
V0x9e93197e6f19c5e0654d3243c15e844f6a66d742
p126
sVKAMSY
p127
V0x12883267298A5666e68e1379Fb99DEc591b2C700
p128
sVAnurag
p129
V0x48191c9860d21528b24188b2d0415b3D0145Fc1E
p130
sVAnanta Prasad Kabi
p131
V0xB8Cbc5f706Ca4eFbd0eC52FF6a3e89d7b1DCEcCB
p132
sVSneh Mujoo
p133
V0x7F281966076Fd1404c07C62f96C9983589eEDF4D
p134
sVPRAGATI S
p135
V0x3Bd5C646710cf996Ad67e833f2d9b923132046dc
p136
sVAlphaGoShunya
p137
V0x51859A271e9ff4D54fC39C17693F1727627F0865
p138
sVProthit Majumdar 
p139
V0x107ab29EF6432b2FF5a22FFC9dBF832305dD2Ce3
p140
sVNiraj Diwan
p141
V0x80d2c90B8C31F6eEEA31adEe76D72B188F96D061
p142
sVShwet Ketu Haritas
p143
V0x20A249c969cE74C8F9A3Fe1B8192fC7428f7CAc6
p144
sVVandana Jindal
p145
V0x5F66bE2290E9C1cdce674C9d78F660E0fB2bd743
p146
sVAnkit jain
p147
V0x3A14C421F313fb944158D703cAF74aAb8A5a069d
p148
sVKrishna Bellary
p149
V0xcfBDd39564799834a8AA02c6A90E2631A432CA66
p150
sVYogiDon
p151
V0xE59156Be85ece7983511A6F8019525Eadc03c3aA
p152
sVRohitRas
p153
V0x25dC0e5A62f349Ae07529afBEbd1e57C153f0Eaf
p154
sVVivek Gorwadkar
p155
V0x698DbF061d643c5d103f4f2E82F7d314777D432f
p156
sVAnkit Saraf
p157
V0x1BdB1300383d942Bb7133D02C1B63135C6E90F5c
p158
sVNikhilesh
p159
V0x57d05FED913088194460894Dcc4Cb31F0A5671c0
p160
sVGajanan Lokhande
p161
V0xa6307a8B61C4fA88077E369Ad0e2085731C9c59D
p162
sVArpit saxena
p163
V0x9b4db6D7eB0a4fAdE4cD9b1059A7f3780B7aF9eB
p164
sVLalit Mohnani
p165
V0x01e491E38A14Ebd7E6419F5581762CBEc8260F52
p166
sVKiran
p167
V0x164732a3fcF8b36dAD8C6bfD11918c56b1A54c3b
p168
sVRajesh Gawade
p169
V0x652e530Bb721a5A964359148CB415E38C3A8B655
p170
sVRavi Sharma
p171
V0xd43f53143EE0f169B3Ead8cdA588B0583F13C548
p172
sVML Yuva Sena
p173
V0xEB5aE75Cb9A623EFB761d78fC9427b785D99bC1B
p174
sVPrachi
p175
V0xC6eC9aa1935c31c98273F6366fe7B49511bC5CB9
p176
sVrahulsingh
p177
V0xBD521485B66510F2b06bD2696EB2Cb0F39f7a6FC
p178
sVMSK
p179
V0x0b8b6fE573aF299684a0990f90Da330F683A7C61
p180
sVIPLKiAAG
p181
V0x620500fa7efe7FF3a67DD6ffcE73d0f82d19f056
p182
sVOmkar
p183
V0xb2b285eC627640388BE46c19178b04C663f2f68A
p184
sVAkshata Raikar
p185
V0x377992166266E2DdA97CBd3f46B9952A34aCEce4
p186
sVsanro1
p187
V0x478E12D50970071047814aeEA70a8402968822EA
p188
sVPappu
p189
V0x3eE2Ccd95558dD586489972f9b1Ba06D8eE083b5
p190
sVRailSplitter
p191
V0x20e7DB048A799b34eDE83A8431033AdCF5eF1c6b
p192
sVAladdin
p193
V0xCFa820A77c50883805497988ee02faAA866ed68F
p194
sVsuperman
p195
V0x6ba33fD3cC075D71C48597dF69278FFa3597a4F5
p196
sVAvik Chakraborty
p197
V0xF75d468AC8833b6c8AA1B3138C0A79F1F2968f09
p198
sVSorcerers Reloaded
p199
V0x81c08AfCe9c26A8E97acEF91969610d07a03d527
p200
sVRandom7Killer
p201
V0x3C1C5a4Fe2a20B0702426f3580A01F8212b94Ae1
p202
sVBhalchandra Joshi
p203
V0xb01b05b3408070dA647fBB606E4C71B6D123a06d
p204
sVAvinash Jedhe
p205
V0x79E565fD0FD376818Ae086FC25da448a2FF18Ddc
p206
sVSanidhya
p207
V
p208
sVPrabhat
p209
V0xb81E269F5D2658eF5B1c74FEE7A69F1Fb1a85043
p210
sVKushaltikmani
p211
V0xdDe4Ef25E0A5c4A17c8f71eF702c7AF9aE66DBCe
p212
sVAkshay Sukhija
p213
V0x8917A4FF8F99470B9414E49735E194Fb6884da22
p214
sVKaram
p215
V0xa75A66f0B029979189F75E0D2fa4B51704Fcaf93
p216
sVMohit Gupta
p217
V0x8C5B4d31920435B6d0b9C49893675b920970ff60
p218
sVGame Swingers
p219
V0xb4a0Fb49de160Eb8BE526c0a0bC64363cf9f6CB0
p220
sVPrajwala Srivatsa
p221
V0xA7939BfB7f6eB24400089B4E15fFA41cBAc39E00
p222
sV#DilSeMI
p223
V0x2d1EF08D350a5Ff4D1351b9BE26166171c967351
p224
sVPratyush
p225
V0xc5B197716f8bC0840D7D7034EF577b643A5Ee436
p226
sVTushar Patil
p227
V0xc5d52c225AF6779994A324126967763Dc9E1c1A3
p228
sVIksha
p229
V0x328A8868f05139bb93e869Cb0F345e1D5B344f58
p230
sVoKtopus prediKtus
p231
V0x1346C1876553f817ACB9AC35c4f522CBF9Ec2e15
p232
sVjkgb
p233
V0x7e1Cbee4b0300399BacC1ADeA2D84d4A039f14bc
p234
sVPraveen Shamlal Kithani
p235
V0x575c22123D9845A222f23E988d45A485AaA25ecf
p236
s.