(dp0
VCoolrider
p1
VSachin kewat
p2
sVFlash
p3
VAbdul Azeem
p4
sVTanay Mathur
p5
VTanay Mathur
p6
sVAarti M
p7
VAarti M
p8
sVipljunky
p9
Vipljunky
p10
sVMangesh
p11
VMangesh
p12
sVSarang Chauhan 
p13
VSarang Chauhan 
p14
sVCSK Fan
p15
VAnurag Singh
p16
sVWillSmith
p17
VWillSmith
p18
sVSupport_PP
p19
VSupport_PP
p20
sVChacha
p21
VChacha
p22
sVsiddharth
p23
Vsiddharth
p24
sV@Garib_Insaan
p25
V@Garib_Insaan
p26
sVHarshada
p27
VHarshada Joshi
p28
sVKiran Kumar Pabboji 
p29
VKiran Kumar Pabboji 
p30
sVKrishna
p31
VKrishna
p32
sVJeet
p33
VJeet
p34
sVShirishT20
p35
VShirish
p36
sVGajanan
p37
VGajanan Lokhande
p38
sVthegodfather
p39
Vthegodfather
p40
sVHimanshu Hansaria
p41
VHimanshu Hansaria
p42
sVNeeraj Kumar
p43
VNeeraj Kumar
p44
sVTanvirs 
p45
VTanvirs 
p46
sVRabi Patro
p47
VRabi Patro
p48
sVAdmin_PP
p49
VAdmin_PP
p50
sVVarun samant
p51
VVarun samant
p52
sVPankajk
p53
VPankaj Khairnar
p54
sVMOHD AQUIB
p55
VMOHD AQUIB
p56
sVAksS
p57
VAkshay Sukhija
p58
sVJyoti singh
p59
VJyoti singh
p60
sVKunalG
p61
VKunalG
p62
sVJerome
p63
VJerome Master
p64
sVPrashant Gupta
p65
VPrashant Gupta
p66
sVKunal Maheshwari
p67
VKunal Maheshwari
p68
sVak2605
p69
Vak2605
p70
sVChaitanya
p71
VChaitanya
p72
sVDipendra
p73
VDipendra
p74
sVPrasun Pande
p75
VPrasun Pande
p76
sVTwentyashes
p77
VTwentyashes
p78
sVSagar Deshmukh
p79
VSagar Deshmukh
p80
sVSupport2 sb
p81
VSupport2 sb
p82
sVAtul Sharma
p83
VAtul Sharma
p84
sVGirish
p85
VGirish
p86
sVSuvit
p87
VSuvit
p88
sVChetan sharma
p89
VChetan sharma
p90
sVPranshu Topal
p91
VPranshu Topal
p92
sVRandom7
p93
VRandom7
p94
sVResearch Machines
p95
VResearch Machines
p96
sVShunya
p97
VShunya
p98
sVRupeshKirmirwar
p99
VRupesh Kirmirwar
p100
sVRamdon007++
p101
VRamdon007++
p102
sVVirendrasinh Gohil 
p103
VVirendrasinh Gohil 
p104
sVPramod
p105
VPramod
p106
sVChirag Kankariya
p107
VChirag Kankariya
p108
sVRohit Srivastava
p109
VRohit Srivastava
p110
sVSumeet Kataria
p111
VSumeet Kataria
p112
sVAdityaadiraju
p113
VAdityaadiraju
p114
sVJadu
p115
VJadu
p116
sVAdmin_SachinS
p117
VAdmin_SachinS
p118
sVProthit
p119
VProthit Majumdar
p120
sVSagar 
p121
VSagar 
p122
sVMatrix
p123
VMatrix
p124
sVXYZ Prediction
p125
VXYZ Prediction
p126
sVVinay Takawale
p127
VVinay Takawale
p128
sVShubham Thakur
p129
VShubham Thakur
p130
sVchawkidaar
p131
Vchawkidaar
p132
sVLights
p133
VVijeth B V
p134
sVSrikanth
p135
VSrikanth Galanki
p136
sVOptimus prime
p137
VTushil
p138
sVsachins
p139
Vsachins
p140
sVKAMSY
p141
VKamlesh oswal
p142
sVAnurag
p143
VAnurag
p144
sVPehchaan Kaun
p145
VAditi Garg
p146
sVAnanta Prasad Kabi
p147
VAnanta Prasad Kabi
p148
sVSneh Mujoo
p149
VSneh Mujoo
p150
sVPRAGATI S
p151
VPRAGATI S
p152
sVAlphaGoShunya
p153
VAlphaGoShunya
p154
sVProthit Majumdar 
p155
VProthit Majumdar 
p156
sVNiraj Diwan
p157
VNiraj Diwan
p158
sVShwet Ketu Haritas
p159
VShwet Ketu Haritas
p160
sVWingu
p161
VWingu
p162
sVVandana Jindal
p163
VVandana Jindal
p164
sVAnkit jain
p165
VAnkit jain
p166
sVanthony
p167
VAnthony Almeida 
p168
sVKrishna Bellary
p169
VKrishna
p170
sVYogiDon
p171
VYogiDon
p172
sVRohitRas
p173
VRohit Pattewar 
p174
sVAustin
p175
VAustin
p176
sVVivek Gorwadkar
p177
VVivek Gorwadkar
p178
sVAnkit Saraf
p179
VAnkit Saraf
p180
sVNikhilesh
p181
VNikhilesh
p182
sVML YUV SENA
p183
VML YUV SENA
p184
sVArpit saxena
p185
VArpit saxena
p186
sVLalit Mohnani
p187
VLalit Mohnani
p188
sVKiran
p189
VKiran
p190
sVRajesh Gawade
p191
VRajesh Gawade
p192
sVRavi Sharma
p193
VRavi Sharma
p194
sVJignesh
p195
VJignesh kanani
p196
sVML Yuva Sena
p197
VML Yuva Sena
p198
sVAbhijit
p199
VABHIJIT KULKARNI
p200
sVPrachi
p201
VPrachi
p202
sVPrajakta
p203
VPrajakta
p204
sVrahulsingh
p205
VChowkidar Rahul Singh
p206
sVMSK
p207
VMangesh
p208
sVIPLKiAAG
p209
VIPLKiAAG
p210
sVOmkar
p211
VOmkar
p212
sVAkshata Raikar
p213
VAkshata Raikar
p214
sVsanro1
p215
VSanjay Rokade 
p216
sVPappu
p217
VAvishek J
p218
sVRailSplitter
p219
VRailSplitter
p220
sVAladdin
p221
VAladdin
p222
sVsuperman
p223
Vsuperman
p224
sVAvik Chakraborty
p225
VAvik Chakraborty
p226
sVSorcerers Reloaded
p227
VSorcerers Reloaded
p228
sVTS
p229
VTS
p230
sVRandom7Killer
p231
VRandom7Killer
p232
sVSanyam Shrivastava
p233
VSanyam Shrivastava
p234
sVBhalchandra Joshi
p235
VBhalchandra Joshi
p236
sVAvinash Jedhe
p237
VAvinash Jedhe
p238
sVSanidhya
p239
VSanidhya
p240
sVPrabhat
p241
VPrabhat
p242
sVKushaltikmani
p243
VKushaltikmani
p244
sVpankaj007
p245
Vpankaj007
p246
sVAkshay Sukhija
p247
VAkshay Sukhija
p248
sVKaram
p249
VKaram
p250
sVMohit Gupta
p251
VMohit Gupta
p252
sVGame Swingers
p253
VGame Swingers
p254
sVPrajwala Srivatsa
p255
VPrajwala Srivatsa
p256
sV#DilSeMI
p257
V#DilSeMI
p258
sVPratyush
p259
VPratyush
p260
sVTushar Patil
p261
VTushar Patil
p262
sVIksha
p263
VIksha
p264
sVoKtopus prediKtus
p265
VoKtopus
p266
sVjkgb
p267
Vjkgb
p268
sVPraveen Shamlal Kithani
p269
VPraveen Shamlal Kithani
p270
s.