(dp0
VCoolrider
p1
VSachin kewat
p2
sVFlash
p3
VAbdul Azeem
p4
sVTanay Mathur
p5
VTanay Mathur
p6
sVAarti M
p7
VAarti M
p8
sVipljunky
p9
Vipljunky
p10
sVMangesh
p11
VMangesh
p12
sVSarang Chauhan 
p13
VSarang Chauhan 
p14
sVCSK Fan
p15
VAnurag Singh
p16
sVWillSmith
p17
VWillSmith
p18
sVSupport_PP
p19
VSupport_PP
p20
sVChacha
p21
VChacha
p22
sVsiddharth
p23
Vsiddharth
p24
sV@Garib_Insaan
p25
V@Garib_Insaan
p26
sVHarshada
p27
VHarshada Joshi
p28
sVKiran Kumar Pabboji 
p29
VKiran Kumar Pabboji 
p30
sVKrishna
p31
VKrishna
p32
sVJeet
p33
VJeet
p34
sVSomesh
p35
VSomesh Dada
p36
sVShirishT20
p37
VShirish
p38
sVGajanan
p39
VGajanan Lokhande
p40
sVthegodfather
p41
Vthegodfather
p42
sVHimanshu Hansaria
p43
VHimanshu Hansaria
p44
sVNeeraj Kumar
p45
VNeeraj Kumar
p46
sVTanvirs 
p47
VTanvirs 
p48
sVRam
p49
VRamkrishna
p50
sVRabi Patro
p51
VRabi Patro
p52
sVAdmin_PP
p53
VAdmin_PP
p54
sVa_m_a_n
p55
VSherlock H
p56
sVVarun samant
p57
VVarun samant
p58
sVPankajk
p59
VPankaj Khairnar
p60
sVMOHD AQUIB
p61
VMOHD AQUIB
p62
sVAksS
p63
VAkshay Sukhija
p64
sVJyoti singh
p65
VJyoti singh
p66
sVKunalG
p67
VKunalG
p68
sVJerome
p69
VJerome Master
p70
sVPrashant Gupta
p71
VPrashant Gupta
p72
sVKunal Maheshwari
p73
VKunal Maheshwari
p74
sVak2605
p75
Vak2605
p76
sVChaitanya
p77
VChaitanya
p78
sVMachineBeast
p79
Vmachine_beast
p80
sVDipendra
p81
VDipendra
p82
sVPrasun Pande
p83
VPrasun Pande
p84
sVTwentyashes
p85
VTwentyashes
p86
sVSagar Deshmukh
p87
VSagar Deshmukh
p88
sVSupport2 sb
p89
VSupport2 sb
p90
sVNeeraj-build
p91
VNeeraj kumar
p92
sVAtul Sharma
p93
VAtul Sharma
p94
sVGirish
p95
VGirish
p96
sVSuvit
p97
VSuvit
p98
sVChetan sharma
p99
VChetan sharma
p100
sVPranshu Topal
p101
VPranshu Topal
p102
sVRandom7
p103
VRandom7
p104
sVResearch Machines
p105
VResearch Machines
p106
sVShunya
p107
VShunya
p108
sVRupeshKirmirwar
p109
VRupesh Kirmirwar
p110
sVSanidhya 
p111
VSanidhya 
p112
sVRamdon007++
p113
VRamdon007++
p114
sVVirendrasinh Gohil 
p115
VVirendrasinh Gohil 
p116
sVPramod
p117
VPramod
p118
sVChirag Kankariya
p119
VChirag Kankariya
p120
sVRohit Srivastava
p121
VRohit Srivastava
p122
sVSumeet Kataria
p123
VSumeet Kataria
p124
sVJeromeML
p125
VJerome Masters ML
p126
sVAdityaadiraju
p127
VAdityaadiraju
p128
sVAnand
p129
VAnand
p130
sVJadu
p131
VJadu
p132
sVAdmin_SachinS
p133
VAdmin_SachinS
p134
sVProthit
p135
VProthit Majumdar
p136
sVSagar 
p137
VSagar 
p138
sVMatrix
p139
VMatrix
p140
sVXYZ Prediction
p141
VXYZ Prediction
p142
sVVinay Takawale
p143
VVinay Takawale
p144
sVShubham Thakur
p145
VShubham Thakur
p146
sVchawkidaar
p147
Vchawkidaar
p148
sVLights
p149
VVijeth B V
p150
sVSrikanth
p151
VSrikanth Galanki
p152
sVOptimus prime
p153
VTushil
p154
sVsachins
p155
Vsachins
p156
sVArks
p157
Vhoris arks ML
p158
sVKAMSY
p159
VKamlesh oswal
p160
sVAnurag
p161
VAnurag
p162
sVPehchaan Kaun
p163
VAditi Garg
p164
sVAnanta Prasad Kabi
p165
VAnanta Prasad Kabi
p166
sVSneh Mujoo
p167
VSneh Mujoo
p168
sVVandy
p169
Vvandy ML
p170
sVPRAGATI S
p171
VPRAGATI S
p172
sVAlphaGoShunya
p173
VAlphaGoShunya
p174
sVProthit Majumdar 
p175
VProthit Majumdar 
p176
sVNiraj Diwan
p177
VNiraj Diwan
p178
sVShwet Ketu Haritas
p179
VShwet Ketu Haritas
p180
sVWingu
p181
VWingu
p182
sVVandana Jindal
p183
VVandana Jindal
p184
sVAnkit jain
p185
VAnkit jain
p186
sVSudhir 
p187
VSudhir Mahadik
p188
sVanthony
p189
VAnthony Almeida 
p190
sVKrishna Bellary
p191
VKrishna
p192
sVYogiDon
p193
VYogiDon
p194
sVRohitRas
p195
VRohit Pattewar 
p196
sVAustin
p197
VAustin
p198
sVVivek Gorwadkar
p199
VVivek Gorwadkar
p200
sVAnkit Saraf
p201
VAnkit Saraf
p202
sVNikhilesh
p203
VNikhilesh
p204
sVML YUV SENA
p205
VML YUV SENA
p206
sVArpit saxena
p207
VArpit saxena
p208
sVLalit Mohnani
p209
VLalit Mohnani
p210
sVKiran
p211
VKiran
p212
sVRajesh Gawade
p213
VRajesh Gawade
p214
sVRavi Sharma
p215
VRavi Sharma
p216
sVJignesh
p217
VJignesh kanani
p218
sVML Yuva Sena
p219
VML Yuva Sena
p220
sVAbhijit
p221
VABHIJIT KULKARNI
p222
sVPrachi
p223
VPrachi
p224
sVPrajakta
p225
VPrajakta
p226
sVrahulsingh
p227
VChowkidar Rahul Singh
p228
sVMSK
p229
VMangesh
p230
sVIPLKiAAG
p231
VIPLKiAAG
p232
sVOmkar
p233
VOmkar
p234
sVAkshata Raikar
p235
VAkshata Raikar
p236
sVsanro1
p237
VSanjay Rokade 
p238
sVPappu
p239
VAvishek J
p240
sVRailSplitter
p241
VRailSplitter
p242
sVAladdin
p243
VAladdin
p244
sVsuperman
p245
Vsuperman
p246
sVmohitml
p247
VML rangers
p248
sVml junky
p249
VML junky
p250
sVAvik Chakraborty
p251
VAvik Chakraborty
p252
sVSorcerers Reloaded
p253
VSorcerers Reloaded
p254
sVTS
p255
VTS
p256
sVRandom7Killer
p257
VRandom7Killer
p258
sVSanyam Shrivastava
p259
VSanyam Shrivastava
p260
sVBhalchandra Joshi
p261
VBhalchandra Joshi
p262
sVAvinash Jedhe
p263
VAvinash Jedhe
p264
sVSanidhya
p265
VSanidhya
p266
sVPrabhat
p267
VPrabhat
p268
sVKushaltikmani
p269
VKushaltikmani
p270
sVpankaj007
p271
Vpankaj007
p272
sVVJ
p273
Vvenkat
p274
sVAkshay Sukhija
p275
VAkshay Sukhija
p276
sVKaram
p277
VKaram
p278
sVMohit Gupta
p279
VMohit Gupta
p280
sV@zawarm
p281
VMamta Zawar
p282
sVGame Swingers
p283
VGame Swingers
p284
sVPrajwala Srivatsa
p285
VPrajwala Srivatsa
p286
sV#DilSeMI
p287
V#DilSeMI
p288
sVPratyush
p289
VPratyush
p290
sVTushar Patil
p291
VTushar Patil
p292
sVIksha
p293
VIksha
p294
sVoKtopus prediKtus
p295
VoKtopus
p296
sVMlp
p297
Vml Pragati
p298
sVjkgb
p299
Vjkgb
p300
sVAayush
p301
VJamalamadaka
p302
sVPraveen Shamlal Kithani
p303
VPraveen Shamlal Kithani
p304
s.