(dp0
V
p1
VPramod Ingole
p2
sVRohan DLT
p3
VRohan Singh
p4
sVPredictors
p5
VRicha Minda
p6
sVSagar Pawar
p7
VSagar Pawar
p8
sVJEET
p9
VAbhijeet Shinde
p10
sVShekhu
p11
VShekhar kangale
p12
sVNovice
p13
VNoviceML
p14
sVJR
p15
VJinal Rupawat
p16
sVSTRICKERS007
p17
VHemant Khankal
p18
sVWhistle Podu
p19
VKunal Gautam
p20
sVRaghav
p21
VRaghavendra Choudhary
p22
sVSamreen135
p23
VSamreen Shaikh
p24
sVBS
p25
VBhaskar Srivastava
p26
sVAyu
p27
VAyush Singh
p28
sVSupriya2805
p29
VSupriya Rajaram Shelar
p30
sVHorisReboot
p31
VHoris Reboot
p32
sVTAS
p33
VTarique Siddiqui
p34
sVNovice rookies
p35
VNovice rookies
p36
sVITBackbenchers
p37
VNitesh Jaiswal
p38
sVSandeep K 
p39
VSandeep Kothale 
p40
sVThe Jolly Cricketer
p41
VChaitanya Shewatkar
p42
sVSmita J
p43
VSmita Jamalamadaka
p44
sVPravin
p45
VPravin Jape
p46
sVnitrek
p47
VSupport1
p48
sV4
p49
VSupport4
p50
sVCH7
p51
VKanchan Popali
p52
sV8
p53
VSupport8
p54
sVHarshada
p55
VHarshada joshi
p56
sVRJ
p57
VRuchir Jain
p58
sVPravinBane
p59
VPravinkumar Bane 
p60
sVnidhi
p61
VNidhi Singh
p62
sVR\u20ac\u03c0uK@
p63
VRenuka Belani
p64
sV7
p65
VSupport7
p66
sVSikander31
p67
VSubodh Jugalkishor Mundhada
p68
sVSamyoo7
p69
VPrabhat
p70
sVIpllover
p71
VPrashant Bhosale
p72
sVSanky
p73
VSanket Desai
p74
sVPacknik
p75
VNikhil PAKHALE
p76
sVIplpredictor
p77
VRohit Patidar
p78
sVAshish Joshi 
p79
VAshish Joshi
p80
sVKph
p81
VKanhaiya Honrao 
p82
sVAmit
p83
VAmit
p84
sVNikhil2705
p85
VNikhil Gawande
p86
sVCV Coders
p87
VCV Coders
p88
sVTusharpatil
p89
VTushar patil
p90
sVRas.rohit
p91
VRohit Pattewar 
p92
sVSac
p93
VSachin
p94
sVmanas
p95
VManas Kagde
p96
sVST20
p97
VShirish T
p98
sVRJ_B
p99
VRaja Bera
p100
sVamol1122
p101
VAmol Markande
p102
sVRavi
p103
VRavindra Rahate
p104
sVDivyaIPL
p105
VDivya Srivastava
p106
sVSagar
p107
VSagar Deshmukh 
p108
sVKrishna 
p109
VKrishna Bellary
p110
sVWakad Whackers
p111
VSudhir Mahadik 
p112
sVPuneriBlockChain
p113
VGajanan Lokhande
p114
sVTatarus pit
p115
VJerome
p116
sVLoneRanger
p117
VRahul Choudhari 
p118
sVPratyush
p119
VPratyush
p120
sVNavish
p121
VNavish Mishra
p122
sVTodu champion
p123
VRAVI SHARMA
p124
sVThePredictors
p125
VThe Predictors
p126
sVPk
p127
VPankaj khairnar 
p128
sVSushantm20
p129
VSushant Mishrikotkar 
p130
sVArun Singh
p131
VArun Singh
p132
sVGsunny
p133
VSunny Goley
p134
sVIMHSAR
p135
VSarang Chauhan
p136
sVOmi
p137
VOmkar Shetye
p138
sVJkalalsingh
p139
VJyoti singg
p140
sVKunal
p141
VKunal Ved
p142
sVRaka
p143
VRakesh Nair
p144
sV3
p145
VSupport3
p146
sVpankaj
p147
Vpankaj
p148
sVSachin D
p149
VSachin deshpande
p150
sVAnkit
p151
VAnkit
p152
sVRandom7
p153
VRandom7
p154
sVatul
p155
VAtul Chaudhari
p156
sVThe Sorcerers !
p157
VTeam Sorcerers - AMG
p158
sVjayshree
p159
VJayshree kakde
p160
sVYuvraj
p161
VYuvraj Bhosale
p162
sVTushar
p163
VTushar Gadhave
p164
sVRavindar
p165
VRavindar kumar
p166
sVAala re
p167
VKartik Ambulkar
p168
sVCrickbot
p169
VAnand Patil
p170
sVRakesh
p171
VRakesh Choudhary
p172
sVSharma18
p173
VAtul kumar sharma
p174
sVPramod
p175
VPramod Karhadkar
p176
sVHemant
p177
VHemant Kumar
p178
sVDoremon
p179
VNeha
p180
sVShaktimaan
p181
VShaktimaan
p182
sVNiraj
p183
VNiraj S Diwan
p184
sVPooja
p185
VPooja Gupta
p186
sVShilpa
p187
VShilpa sane
p188
sVcvs257
p189
VSaketh Chitrapu
p190
sVAnkit Jain
p191
VAnkit Jain
p192
sVSparklers
p193
VPriya Bharti
p194
sVonlyAbhinav 
p195
VAbhinav Sharma
p196
sVThe Predictors
p197
VThe Predictors
p198
sVDushant
p199
VDushant Bhinge
p200
sVPIJU
p201
VPrajakta
p202
sVAnand
p203
VAnand Patil
p204
sVBhayankars
p205
VAnchal Nigam
p206
sVPiyushN
p207
VPiyush  Narlawar
p208
sVMachupiccu
p209
VMachupiccu
p210
sVNare10
p211
VAniket Ashok Nare
p212
sVLalit1548
p213
VLalit Mohnani
p214
sVsachinmang
p215
Vsachin mangal
p216
sVTiger
p217
VPraful Awari 
p218
sVKavitasolanki15 
p219
VKavita Solanki 
p220
sVGeniusGirish
p221
VGirish Sarvottam Kulkarni 
p222
sVKhelo
p223
VKhelo
p224
sVPrerika
p225
VPrerika
p226
sVOnboarding Super Kings
p227
VOnboarding Super Kings
p228
sV2
p229
VSupport2
p230
sVvarun_vj
p231
VVarun Jain
p232
sVHORIS_RETURNS
p233
VHORIS_RETURNS
p234
sV6
p235
VSupport6
p236
sVGame Changer
p237
VPALAK BAGGA
p238
sVchaudhary
p239
VNidhi Singh
p240
sVScorpion
p241
VNeerav shah
p242
sVMavericks
p243
VMavericks
p244
sVSRK
p245
VSarang Ramesh Kulkarni
p246
sVMakAarti
p247
VAarti Makhijani
p248
sVSwets 
p249
VSwets
p250
sVIplchamps
p251
VIPL Champs
p252
sVChetan Sharma
p253
VChetan Sharma
p254
sVRoyston
p255
VRoyston Pereira
p256
sVAshu
p257
VAshutosh Dekondwar
p258
sVThe Sorcerers
p259
VTeam Sorcerers
p260
sVCricfrenz.com
p261
VCricfrenz
p262
sVSvbipl
p263
VSagar Badve
p264
sV11
p265
VSupport9
p266
sVaad
p267
VAjay A Deshpande 
p268
sV13
p269
VSupport3
p270
sV12
p271
VSupport9
p272
sVTush_DevD
p273
VTushar Baban Devardekar
p274
sVDivyaIPL2
p275
VDivya Srivastava
p276
sVFrenzied 
p277
VShailendra Singh 
p278
sVRohan
p279
VRohan
p280
sVDhruv
p281
VJitendra solanki
p282
sVPinks
p283
VPinky Porwal
p284
sVAbhiKulk
p285
VAbhijit Kulkarni
p286
sVDabangHero
p287
VKunal Maheshwari
p288
sVSnehMujoo
p289
VSneh Mujoo
p290
sVArchit 
p291
VArchit Kapoor
p292
sVDJ
p293
VDharmendra Jaiswal
p294
sVpsk
p295
VPraveen Shamlal Kithani
p296
sV999999999
p297
Vauto_test99
p298
sVAflatoon
p299
VRashmi Shivhare
p300
sVMSG
p301
VAmg navigator
p302
sVsanjayr
p303
VSanajy Rokade 
p304
sVMSK
p305
VManguesh Sinai Kaisare 
p306
sVSnehal
p307
VSnehal Prasad Pingle
p308
sVravindra jain
p309
Vravindra jain
p310
sVCheetah
p311
VBalaji Srinivasan
p312
sVMonica
p313
VSparklers
p314
sVJT's Team
p315
VJatin Thakkar
p316
sVSkull
p317
VTeam Skull
p318
sVUrvi
p319
VUrvi
p320
sVWarrior55
p321
VKandarpa Raghav
p322
sVIpl-prophecy
p323
VSanjay maheshwari
p324
sVMaddy
p325
VMaddy
p326
sVMac
p327
VMac
p328
sV5
p329
VSupport5
p330
sVDeep Minds
p331
VDeep Minds
p332
sV9
p333
VSupport4
p334
sVViren
p335
VVirendrasinh Gohil
p336
sVDesiBoys
p337
VPrashant rathi 
p338
sV10
p339
VSupport4
p340
sVMahi
p341
VMahesh Vasudevan
p342
sVN4Narcissist
p343
VNikhil
p344
sVVishwasb
p345
VVishwas Bajaj
p346
sVAK
p347
VAnubhav kondawar
p348
sVRomesh
p349
VRomesh Bajaj
p350
sVScavanger
p351
VRohit Rijhwani 
p352
sVML Hunterzz
p353
VRohit
p354
sVPeeyush sodhia
p355
VPeeyush Sodhia 
p356
sVJCB
p357
VJay Bhatia
p358
sVSjyptr
p359
VSanjay patidar
p360
sVTJ
p361
VSunny Parekh
p362
sVMLYS
p363
VML Yuva Sena
p364
sVMyBestTeam
p365
VSomnath Das
p366
sVChet
p367
VChetan Madur
p368
sVDanger Danger Creeping Closer 
p369
VJerome
p370
sVRupeshK
p371
VRupesh Kirmirwar
p372
sVRS
p373
VRoma Saini
p374
sVDeep
p375
VDeepanjan Kanungo 
p376
sVArchit
p377
VDoctor Strange
p378
sVManny
p379
VManoj Ramchandani
p380
sV3EyedRaven
p381
VKarunesh Kumar
p382
sVIkillz
p383
VIshan
p384
sVShip
p385
VShipra Jain
p386
sVgjain
p387
VGaurav Jain
p388
s.