(dp0
VWhistle podu
p1
V0x2279e1F61524857F45Cd4A3704B623fc50Aaf23e
p2
sVML Hunterzz
p3
V0x0b5E606b39B9029C2e4FcED7C97B012eDBa96C59
p4
sVDanger Danger Creeping Closer 
p5
V0x71De7bcbe8F4e5C54ad7e58856C70C19CdDAb1b3
p6
sVMavericks
p7
V0x9BcF3b641A4ff536ABf933e54d7d8bEf25C3D9f1
p8
sVThamit
p9
V0x17664421d825760920b971327aE18E054BE92669
p10
sVDemo
p11
V0x21306b1bed3354a465B856D18D360B98821C99Cf
p12
sVMaddy
p13
V0x9407fF05df9B102eaaF935a209dC7D037BaC831a
p14
sVPacknik
p15
V0x9F0c3Ba110E3E61761992fea58D125f601164ced
p16
sVLogan
p17
V0x44A44315d69C4AF27c76B3b5e8C11b5CC92d24b3
p18
sVnitrek
p19
V0x2d1EF08D350a5Ff4D1351b9BE26166171c967351
p20
sVAnand
p21
V0xABe03a544Efd8147CE451ceE8cCAA7E895fc400e
p22
sVPunyamP
p23
V0x085E946AbA16e8AD4acEC35ceE8ddf0aB3EB2177
p24
sVAtul
p25
V0x0570490d91038Bb5725B2Dadf3FE919fD517B05C
p26
sVThe Sorcerers
p27
V0xB1ff063A7F26b4d5bd35369e6561b065e83a77CA
p28
sVHemant
p29
V0xfdcE80F4ACE9723e874DF236FAdf0BFBC6598818
p30
sVkingsXIpunjab
p31
V0xc698F70f80aC18C9C33c7289E6CA55e8B88468D6
p32
sVsachin
p33
V0x4687193d7C4def8A36796795D7Ab865366bC0ED5
p34
sVJi
p35
V0xCC8D8b086dBed45F087488E3BBb172d4fD67893d
p36
s.