(dp0
VCoolrider
p1
VSachin kewat
p2
sVFlash
p3
VAbdul Azeem
p4
sVTanay Mathur
p5
VTanay Mathur
p6
sVAarti M
p7
VAarti M
p8
sVipljunky
p9
Vipljunky
p10
sVMangesh
p11
VMangesh
p12
sVSarang Chauhan 
p13
VSarang Chauhan 
p14
sVCSK Fan
p15
VAnurag Singh
p16
sVWillSmith
p17
VWillSmith
p18
sVSupport_PP
p19
VSupport_PP
p20
sVChacha
p21
VChacha
p22
sVsiddharth
p23
Vsiddharth
p24
sV@Garib_Insaan
p25
V@Garib_Insaan
p26
sVHarshada
p27
VHarshada Joshi
p28
sVKiran Kumar Pabboji 
p29
VKiran Kumar Pabboji 
p30
sVKrishna
p31
VKrishna
p32
sVJeet
p33
VJeet
p34
sVShirishT20
p35
VShirish
p36
sVGajanan
p37
VGajanan Lokhande
p38
sVthegodfather
p39
Vthegodfather
p40
sVHimanshu Hansaria
p41
VHimanshu Hansaria
p42
sVNeeraj Kumar
p43
VNeeraj Kumar
p44
sVTanvirs 
p45
VTanvirs 
p46
sVRabi Patro
p47
VRabi Patro
p48
sVAdmin_PP
p49
VAdmin_PP
p50
sVa_m_a_n
p51
VSherlock H
p52
sVVarun samant
p53
VVarun samant
p54
sVPankajk
p55
VPankaj Khairnar
p56
sVMOHD AQUIB
p57
VMOHD AQUIB
p58
sVAksS
p59
VAkshay Sukhija
p60
sVJyoti singh
p61
VJyoti singh
p62
sVKunalG
p63
VKunalG
p64
sVJerome
p65
VJerome Master
p66
sVPrashant Gupta
p67
VPrashant Gupta
p68
sVKunal Maheshwari
p69
VKunal Maheshwari
p70
sVak2605
p71
Vak2605
p72
sVChaitanya
p73
VChaitanya
p74
sVMachineBeast
p75
Vmachine_beast
p76
sVDipendra
p77
VDipendra
p78
sVPrasun Pande
p79
VPrasun Pande
p80
sVTwentyashes
p81
VTwentyashes
p82
sVSagar Deshmukh
p83
VSagar Deshmukh
p84
sVSupport2 sb
p85
VSupport2 sb
p86
sVNeeraj-build
p87
VNeeraj kumar
p88
sVAtul Sharma
p89
VAtul Sharma
p90
sVGirish
p91
VGirish
p92
sVSuvit
p93
VSuvit
p94
sVChetan sharma
p95
VChetan sharma
p96
sVPranshu Topal
p97
VPranshu Topal
p98
sVRandom7
p99
VRandom7
p100
sVResearch Machines
p101
VResearch Machines
p102
sVShunya
p103
VShunya
p104
sVRupeshKirmirwar
p105
VRupesh Kirmirwar
p106
sVSanidhya 
p107
VSanidhya 
p108
sVRamdon007++
p109
VRamdon007++
p110
sVVirendrasinh Gohil 
p111
VVirendrasinh Gohil 
p112
sVPramod
p113
VPramod
p114
sVChirag Kankariya
p115
VChirag Kankariya
p116
sVRohit Srivastava
p117
VRohit Srivastava
p118
sVSumeet Kataria
p119
VSumeet Kataria
p120
sVAdityaadiraju
p121
VAdityaadiraju
p122
sVJadu
p123
VJadu
p124
sVAdmin_SachinS
p125
VAdmin_SachinS
p126
sVProthit
p127
VProthit Majumdar
p128
sVSagar 
p129
VSagar 
p130
sVMatrix
p131
VMatrix
p132
sVXYZ Prediction
p133
VXYZ Prediction
p134
sVVinay Takawale
p135
VVinay Takawale
p136
sVShubham Thakur
p137
VShubham Thakur
p138
sVchawkidaar
p139
Vchawkidaar
p140
sVLights
p141
VVijeth B V
p142
sVSrikanth
p143
VSrikanth Galanki
p144
sVOptimus prime
p145
VTushil
p146
sVsachins
p147
Vsachins
p148
sVKAMSY
p149
VKamlesh oswal
p150
sVAnurag
p151
VAnurag
p152
sVPehchaan Kaun
p153
VAditi Garg
p154
sVAnanta Prasad Kabi
p155
VAnanta Prasad Kabi
p156
sVSneh Mujoo
p157
VSneh Mujoo
p158
sVPRAGATI S
p159
VPRAGATI S
p160
sVAlphaGoShunya
p161
VAlphaGoShunya
p162
sVProthit Majumdar 
p163
VProthit Majumdar 
p164
sVNiraj Diwan
p165
VNiraj Diwan
p166
sVShwet Ketu Haritas
p167
VShwet Ketu Haritas
p168
sVWingu
p169
VWingu
p170
sVVandana Jindal
p171
VVandana Jindal
p172
sVAnkit jain
p173
VAnkit jain
p174
sVSudhir 
p175
VSudhir Mahadik
p176
sVanthony
p177
VAnthony Almeida 
p178
sVKrishna Bellary
p179
VKrishna
p180
sVYogiDon
p181
VYogiDon
p182
sVRohitRas
p183
VRohit Pattewar 
p184
sVAustin
p185
VAustin
p186
sVVivek Gorwadkar
p187
VVivek Gorwadkar
p188
sVAnkit Saraf
p189
VAnkit Saraf
p190
sVNikhilesh
p191
VNikhilesh
p192
sVML YUV SENA
p193
VML YUV SENA
p194
sVArpit saxena
p195
VArpit saxena
p196
sVLalit Mohnani
p197
VLalit Mohnani
p198
sVKiran
p199
VKiran
p200
sVRajesh Gawade
p201
VRajesh Gawade
p202
sVRavi Sharma
p203
VRavi Sharma
p204
sVJignesh
p205
VJignesh kanani
p206
sVML Yuva Sena
p207
VML Yuva Sena
p208
sVAbhijit
p209
VABHIJIT KULKARNI
p210
sVPrachi
p211
VPrachi
p212
sVPrajakta
p213
VPrajakta
p214
sVrahulsingh
p215
VChowkidar Rahul Singh
p216
sVMSK
p217
VMangesh
p218
sVIPLKiAAG
p219
VIPLKiAAG
p220
sVOmkar
p221
VOmkar
p222
sVAkshata Raikar
p223
VAkshata Raikar
p224
sVsanro1
p225
VSanjay Rokade 
p226
sVPappu
p227
VAvishek J
p228
sVRailSplitter
p229
VRailSplitter
p230
sVAladdin
p231
VAladdin
p232
sVsuperman
p233
Vsuperman
p234
sVml junky
p235
VML junky
p236
sVAvik Chakraborty
p237
VAvik Chakraborty
p238
sVSorcerers Reloaded
p239
VSorcerers Reloaded
p240
sVTS
p241
VTS
p242
sVRandom7Killer
p243
VRandom7Killer
p244
sVSanyam Shrivastava
p245
VSanyam Shrivastava
p246
sVBhalchandra Joshi
p247
VBhalchandra Joshi
p248
sVAvinash Jedhe
p249
VAvinash Jedhe
p250
sVSanidhya
p251
VSanidhya
p252
sVPrabhat
p253
VPrabhat
p254
sVKushaltikmani
p255
VKushaltikmani
p256
sVpankaj007
p257
Vpankaj007
p258
sVAkshay Sukhija
p259
VAkshay Sukhija
p260
sVKaram
p261
VKaram
p262
sVMohit Gupta
p263
VMohit Gupta
p264
sVGame Swingers
p265
VGame Swingers
p266
sVPrajwala Srivatsa
p267
VPrajwala Srivatsa
p268
sV#DilSeMI
p269
V#DilSeMI
p270
sVPratyush
p271
VPratyush
p272
sVTushar Patil
p273
VTushar Patil
p274
sVIksha
p275
VIksha
p276
sVoKtopus prediKtus
p277
VoKtopus
p278
sVMlp
p279
Vml Pragati
p280
sVjkgb
p281
Vjkgb
p282
sVAayush
p283
VJamalamadaka
p284
sVPraveen Shamlal Kithani
p285
VPraveen Shamlal Kithani
p286
s.