(dp0
V
p1
VPramod Ingole
p2
sVPredictors
p3
VRicha Minda
p4
sVSagar Pawar
p5
VSagar Pawar
p6
sVShekhu
p7
VShekhar kangale
p8
sVNovice
p9
VNoviceML
p10
sVJR
p11
VJinal Rupawat
p12
sVSTRICKERS007
p13
VHemant Khankal
p14
sVWhistle Podu
p15
VKunal Gautam
p16
sVBS
p17
VBhaskar Srivastava
p18
sVAyu
p19
VAyush Singh
p20
sVSupriya2805
p21
VSupriya Rajaram Shelar
p22
sVHorisReboot
p23
VHoris Reboot
p24
sVTAS
p25
VTarique Siddiqui
p26
sVITBackbenchers
p27
VNitesh Jaiswal
p28
sVSandeep K 
p29
VSandeep Kothale 
p30
sVThe Jolly Cricketer
p31
VChaitanya Shewatkar
p32
sVSmita J
p33
VSmita Jamalamadaka
p34
sVPravin
p35
VPravin Jape
p36
sVnitrek
p37
VSupport1
p38
sV4
p39
VSupport4
p40
sVCH7
p41
VKanchan Popali
p42
sV8
p43
VSupport8
p44
sVRJ
p45
VRuchir Jain
p46
sVnidhi
p47
VNidhi Singh
p48
sVAnkit
p49
VAnkit
p50
sVSikander31
p51
VSubodh Jugalkishor Mundhada
p52
sVSamyoo7
p53
VPrabhat
p54
sVSanky
p55
VSanket Desai
p56
sVPacknik
p57
VNikhil PAKHALE
p58
sV12
p59
VSupport9
p60
sVAshish Joshi 
p61
VAshish Joshi
p62
sVKph
p63
VKanhaiya Honrao 
p64
sVNare10
p65
VAniket Ashok Nare
p66
sVNikhil2705
p67
VNikhil Gawande
p68
sVTusharpatil
p69
VTushar patil
p70
sVmanas
p71
VManas Kagde
p72
sVamol1122
p73
VAmol Markande
p74
sVDivyaIPL
p75
VDivya Srivastava
p76
sVKrishna 
p77
VKrishna Bellary
p78
sVPuneriBlockChain
p79
VGajanan Lokhande
p80
sVTatarus pit
p81
VJerome
p82
sVPratyush
p83
VPratyush
p84
sVNavish
p85
VNavish Mishra
p86
sVThePredictors
p87
VThe Predictors
p88
sVN4Narcissist
p89
VNikhil
p90
sVArun Singh
p91
VArun Singh
p92
sVGsunny
p93
VSunny Goley
p94
sVIMHSAR
p95
VSarang Chauhan
p96
sVJkalalsingh
p97
VJyoti singg
p98
sVKunal
p99
VKunal Ved
p100
sVRaka
p101
VRakesh Nair
p102
sV3
p103
VSupport3
p104
sVpankaj
p105
Vpankaj
p106
sVSachin D
p107
VSachin deshpande
p108
sV7
p109
VSupport7
p110
sVRandom7
p111
VRandom7
p112
sVatul
p113
VAtul Choudhari
p114
sVThe Sorcerers !
p115
VTeam Sorcerers - AMG
p116
sVTushar
p117
VTushar Gadhave
p118
sVRavindar
p119
VRavindar kumar
p120
sVAala re
p121
VKartik Ambulkar
p122
sVRakesh
p123
VRakesh Choudhary
p124
sVAmit
p125
VAmit
p126
sVPramod
p127
VPramod Karhadkar
p128
sVHemant
p129
VHemant Kumar
p130
sVDoremon
p131
VNeha
p132
sVShaktimaan
p133
VShaktimaan
p134
sVML Hunterzz
p135
VRohit
p136
sVShilpa
p137
VShilpa sane
p138
sVcvs257
p139
VSaketh Chitrapu
p140
sVonlyAbhinav 
p141
VAbhinav Sharma
p142
sVThe Predictors
p143
VThe Predictors
p144
sVPIJU
p145
VPrajakta
p146
sVAnand
p147
VAnand Patil
p148
sVBhayankars
p149
VAnchal Nigam
p150
sVMachupiccu
p151
VMachupiccu
p152
sVLalit1548
p153
VLalit Mohnani
p154
sVAtul
p155
VAtul sharma
p156
sVOnboarding Super Kings
p157
VOnboarding Super Kings
p158
sV2
p159
VSupport2
p160
sVvarun_vj
p161
VVarun Jain
p162
sVHORIS_RETURNS
p163
VHORIS_RETURNS
p164
sV6
p165
VSupport6
p166
sVGame Changer
p167
VPALAK BAGGA
p168
sVchaudhary
p169
VNidhi Singh
p170
sVScorpion
p171
VNeerav shah
p172
sVMavericks
p173
VMavericks
p174
sVSRK
p175
VSarang Ramesh Kulkarni
p176
sVMakAarti
p177
VAarti Makhijani
p178
sVIplchamps
p179
VIPL Champs
p180
sVChetan Sharma
p181
VChetan Sharma
p182
sVRoyston
p183
VRoyston Pereira
p184
sVThe Sorcerers
p185
VTeam Sorcerers
p186
sVSvbipl
p187
VSagar Badve
p188
sV11
p189
VSupport9
p190
sVaad
p191
VAjay A Deshpande 
p192
sV13
p193
VSupport3
p194
sVIplpredictor
p195
VRohit Patidar
p196
sVDivyaIPL2
p197
VDivya Srivastava
p198
sVRohan
p199
VRohan
p200
sVAbhiKulk
p201
VAbhijit Kulkarni
p202
sVSnehMujoo
p203
VSneh Mujoo
p204
sVArchit 
p205
VArchit Kapoor
p206
sVDJ
p207
VDharmendra Jaiswal
p208
sVpsk
p209
VPraveen Shamlal Kithani
p210
sVAflatoon
p211
VRashmi Shivhare
p212
sVsanjayr
p213
VSanajy Rokade 
p214
sVMSK
p215
VManguesh Sinai Kaisare 
p216
sVravindra jain
p217
Vravindra jain
p218
sVCheetah
p219
VBalaji Srinivasan
p220
sVJT's Team
p221
VJatin Thakkar
p222
sVSkull
p223
VTeam Skull
p224
sVWarrior55
p225
VKandarpa Raghav
p226
sVIpl-prophecy
p227
VSanjay maheshwari
p228
sVManny
p229
VManoj Ramchandani
p230
sVMaddy
p231
VMaddy
p232
sVMac
p233
VMac
p234
sV5
p235
VSupport5
p236
sVDeep Minds
p237
VDeep Minds
p238
sV9
p239
VSupport4
p240
sV10
p241
VSupport4
p242
sVMahi
p243
VMahesh Vasudevan
p244
sVSushantm20
p245
VSushant Mishrikotkar 
p246
sVVishwasb
p247
VVishwas Bajaj
p248
sVRomesh
p249
VRomesh Bajaj
p250
sVPooja
p251
VPooja Gupta
p252
sVJCB
p253
VJay Bhatia
p254
sVMLYS
p255
VML Yuva Sena
p256
sVChet
p257
VChetan Madur
p258
sVDanger Danger Creeping Closer 
p259
VJerome
p260
sVRS
p261
VRoma Saini
p262
sVArchit
p263
VDoctor Strange
p264
sVLogan
p265
VSomesh Bakre
p266
sV3EyedRaven
p267
VKarunesh Kumar
p268
sVIkillz
p269
VIshan
p270
sVShip
p271
VShipra Jain
p272
s.