(dp0
VCoolrider
p1
VSachin kewat
p2
sVFlash
p3
VAbdul Azeem
p4
sVTanay Mathur
p5
VTanay Mathur
p6
sVAarti M
p7
VAarti M
p8
sVjb202038
p9
VJay Bothra
p10
sVipljunky
p11
Vipljunky
p12
sVMangesh
p13
VMangesh
p14
sVMatrix
p15
VMatrix
p16
sVWillSmith
p17
VWillSmith
p18
sVChetan sharma
p19
VChetan sharma
p20
sVChacha
p21
VChacha
p22
sVJi
p23
VJi
p24
sVBhalchandra Joshi
p25
VBhalchandra Joshi
p26
sV@Garib_Insaan
p27
V@Garib_Insaan
p28
sVHarshada
p29
VHarshada Joshi
p30
sVKiran Kumar Pabboji 
p31
VKiran Kumar Pabboji 
p32
sVKrishna
p33
VKrishna
p34
sVOmkar
p35
VOmkar
p36
sVJeet
p37
VJeet
p38
sVSomesh
p39
VSomesh Dada
p40
sVPacknik
p41
VNikhil PAKHALE
p42
sVShirishT20
p43
VShirish
p44
sVGajanan
p45
VGajanan Lokhande
p46
sVthegodfather
p47
Vthegodfather
p48
sVHimanshu Hansaria
p49
VHimanshu Hansaria
p50
sVNeeraj Kumar
p51
VNeeraj Kumar
p52
sVCSK Fan
p53
VAnurag Singh
p54
sVRam
p55
VRamkrishna
p56
sVRabi Patro
p57
VRabi Patro
p58
sVAdmin_PP
p59
VAdmin_PP
p60
sVa_m_a_n
p61
VSherlock H
p62
sVVarun samant
p63
VVarun samant
p64
sVPankajk
p65
VPankaj Khairnar
p66
sVMOHD AQUIB
p67
VMOHD AQUIB
p68
sVSanidhya 
p69
VSanidhya 
p70
sVJyoti singh
p71
VJyoti singh
p72
sVKunalG
p73
VKunalG
p74
sVJerome
p75
VJerome Master
p76
sVPrashant Gupta
p77
VPrashant Gupta
p78
sVKunal Maheshwari
p79
VKunal Maheshwari
p80
sVak2605
p81
Vak2605
p82
sVChaitanya
p83
VChaitanya
p84
sVMachineBeast
p85
Vmachine_beast
p86
sVDipendra
p87
VDipendra
p88
sVPrasun Pande
p89
VPrasun Pande
p90
sVTwentyashes
p91
VTwentyashes
p92
sVSagar Deshmukh
p93
VSagar Deshmukh
p94
sVSupport2 sb
p95
VSupport2 sb
p96
sVNeeraj-build
p97
VNeeraj kumar
p98
sVAtul Sharma
p99
VAtul Sharma
p100
sVGirish
p101
VGirish
p102
sVSuvit
p103
VSuvit
p104
sVSupport_PP
p105
VSupport_PP
p106
sVPranshu Topal
p107
VPranshu Topal
p108
sVRandom7
p109
VRandom7
p110
sVRavi
p111
VRavi sharma
p112
sVResearch Machines
p113
VResearch Machines
p114
sVShunya
p115
VShunya
p116
sVRupeshKirmirwar
p117
VRupesh Kirmirwar
p118
sVAksS
p119
VAkshay Sukhija
p120
sVRamdon007++
p121
VRamdon007++
p122
sVVirendrasinh Gohil 
p123
VVirendrasinh Gohil 
p124
sVPramod
p125
VPramod
p126
sVChirag Kankariya
p127
VChirag Kankariya
p128
sVRohit Srivastava
p129
VRohit Srivastava
p130
sVSumeet Kataria
p131
VSumeet Kataria
p132
sVJeromeML
p133
VJerome Masters ML
p134
sVAdityaadiraju
p135
VAdityaadiraju
p136
sVAnand
p137
VAnand
p138
sVJadu
p139
VJadu
p140
sVAdmin_SachinS
p141
VAdmin_SachinS
p142
sVProthit
p143
VProthit Majumdar
p144
sVSagar 
p145
VSagar 
p146
sVSarang Chauhan 
p147
VSarang Chauhan 
p148
sVXYZ Prediction
p149
VXYZ Prediction
p150
sVVinay Takawale
p151
VVinay Takawale
p152
sVShubham Thakur
p153
VShubham Thakur
p154
sVchawkidaar
p155
Vchawkidaar
p156
sVLights
p157
VVijeth B V
p158
sVSrikanth
p159
VSrikanth Galanki
p160
sVOptimus prime
p161
VTushil
p162
sVGame Swingers
p163
VGame Swingers
p164
sVsachins
p165
Vsachins
p166
sVArks
p167
Vhoris arks ML
p168
sVKAMSY
p169
VKamlesh oswal
p170
sVAnurag
p171
VAnurag
p172
sVPehchaan Kaun
p173
VAditi Garg
p174
sVAnanta Prasad Kabi
p175
VAnanta Prasad Kabi
p176
sVSneh Mujoo
p177
VSneh Mujoo
p178
sVVandy
p179
Vvandy ML
p180
sVPRAGATI S
p181
VPRAGATI S
p182
sVAlphaGoShunya
p183
VAlphaGoShunya
p184
sVProthit Majumdar 
p185
VProthit Majumdar 
p186
sVNiraj Diwan
p187
VNiraj Diwan
p188
sVTanvirs 
p189
VTanvirs 
p190
sVShwet Ketu Haritas
p191
VShwet Ketu Haritas
p192
sVShunya_Reloaded
p193
VShailendra
p194
sVWingu
p195
VWingu
p196
sVAnkit jain
p197
VAnkit jain
p198
sVanthony
p199
VAnthony Almeida 
p200
sVKrishna Bellary
p201
VKrishna
p202
sVYogiDon
p203
VYogiDon
p204
sVRohitRas
p205
VRohit Pattewar 
p206
sVAustin
p207
VAustin
p208
sVVivek Gorwadkar
p209
VVivek Gorwadkar
p210
sVAnkit Saraf
p211
VAnkit Saraf
p212
sVNikhilesh
p213
VNikhilesh
p214
sVML YUV SENA
p215
VML YUV SENA
p216
sVArpit saxena
p217
VArpit saxena
p218
sVLalit Mohnani
p219
VLalit Mohnani
p220
sVKiran
p221
VKiran
p222
sVRajesh Gawade
p223
VRajesh Gawade
p224
sVRavi Sharma
p225
VRavi Sharma
p226
sVRavi2 Sharma
p227
VRavi2 Sharma
p228
sVJignesh
p229
VJignesh kanani
p230
sVVandana Jindal
p231
VVandana Jindal
p232
sVAbhijit
p233
VABHIJIT KULKARNI
p234
sVPrachi
p235
VPrachi
p236
sVPrajakta
p237
VPrajakta
p238
sVrahulsingh
p239
VChowkidar Rahul Singh
p240
sVMSK
p241
VMangesh
p242
sVIPLKiAAG
p243
VIPLKiAAG
p244
sVML Yuva Sena
p245
VML Yuva Sena
p246
sVAkshata Raikar
p247
VAkshata Raikar
p248
sVsanro1
p249
VSanjay Rokade 
p250
sVPappu
p251
VAvishek J
p252
sVRailSplitter
p253
VRailSplitter
p254
sVAladdin
p255
VAladdin
p256
sVsuperman
p257
Vsuperman
p258
sVmohitml
p259
VML rangers
p260
sVSudhir 
p261
VSudhir Mahadik
p262
sVAvik Chakraborty
p263
VAvik Chakraborty
p264
sVSorcerers Reloaded
p265
VSorcerers Reloaded
p266
sVTS
p267
VTS
p268
sVRandom7Killer
p269
VRandom7Killer
p270
sVSanyam Shrivastava
p271
VSanyam Shrivastava
p272
sVsiddharth
p273
Vsiddharth
p274
sVAvinash Jedhe
p275
VAvinash Jedhe
p276
sVSanidhya
p277
VSanidhya
p278
sVPrabhat
p279
VPrabhat
p280
sVKushaltikmani
p281
VKushaltikmani
p282
sVpankaj007
p283
Vpankaj007
p284
sVVJ
p285
Vvenkat
p286
sVAkshay Sukhija
p287
VAkshay Sukhija
p288
sVKaram
p289
VKaram
p290
sVMohit Gupta
p291
VMohit Gupta
p292
sV@zawarm
p293
VMamta Zawar
p294
sVml junky
p295
VML junky
p296
sVPrajwala Srivatsa
p297
VPrajwala Srivatsa
p298
sV#DilSeMI
p299
V#DilSeMI
p300
sVPratyush
p301
VPratyush
p302
sVTushar Patil
p303
VTushar Patil
p304
sVIksha
p305
VIksha
p306
sVoKtopus prediKtus
p307
VoKtopus
p308
sVMlp
p309
Vml Pragati
p310
sVjkgb
p311
Vjkgb
p312
sVAayush
p313
VJamalamadaka
p314
sVPraveen Shamlal Kithani
p315
VPraveen Shamlal Kithani
p316
s.