(dp0
VWhistle podu
p1
VKunal Gautam
p2
sVML Hunterzz
p3
VML Hunterzz
p4
sVDanger Danger Creeping Closer 
p5
VJerome
p6
sVMavericks
p7
VMavericks
p8
sVThamit
p9
VAmit Thakur
p10
sVDemo
p11
VDemo name
p12
sVMaddy
p13
VMaddy
p14
sVPacknik
p15
VNikhil PAKHALE
p16
sVLogan
p17
VSomesh Bakre
p18
sVnitrek
p19
VNitesh singh
p20
sVAnand
p21
VAnand Patil
p22
sVPunyamP
p23
VPunyam Patnaik
p24
sVAtul
p25
VAtul sharma
p26
sVThe Sorcerers
p27
VTeam Sorcerers
p28
sVHemant
p29
VHemant Kumar
p30
sVkingsXIpunjab
p31
VkingsXIpunjab
p32
sVsachin
p33
VSachin Sharma
p34
sVJi
p35
VJinal Rupawat
p36
s.