(dp0
V
p1
VPramod Ingole
p2
sVArchit 
p3
VArchit Kapoor
p4
sVPooja
p5
VPooja Gupta
p6
sVpsk
p7
VPraveen Shamlal Kithani
p8
sVNavish
p9
VNavish Mishra
p10
sVTatarus pit
p11
VJerome
p12
sVJR
p13
VJinal Rupawat
p14
sVWhistle Podu
p15
VKunal Gautam
p16
sVpunyampat
p17
VPunyam Patnaik
p18
sVnidhi
p19
VNidhi Singh
p20
sVIkillz
p21
VIshan
p22
sVAtul
p23
VAtul sharma
p24
sVArun Singh
p25
VArun Singh
p26
sVTAS
p27
VTarique Siddiqui
p28
sVpunyampp
p29
VPunyam
p30
sVSandeep K 
p31
VSandeep Kothale 
p32
sVManny
p33
VManoj Ramchandani
p34
sVMaddy
p35
VMaddy
p36
sVnitrek
p37
VNitesh singh
p38
sVCH7
p39
VKanchan Popali
p40
sVatul
p41
VAtul Choudhari
p42
sVThe Sorcerers !
p43
VTeam Sorcerers - AMG
p44
sVchaudhary
p45
VNidhi Singh
p46
sVN4Narcissist
p47
VNikhil
p48
sVMavericks
p49
VMavericks
p50
sVJkalalsingh
p51
VJyoti singg
p52
sVVishwasb
p53
VVishwas Bajaj
p54
sVMakAarti
p55
VAarti Makhijani
p56
sVRandom7
p57
VRandom7
p58
sVPacknik
p59
VNikhil PAKHALE
p60
sVChetan Sharma
p61
VChetan Sharma
p62
sVRakesh
p63
VRakesh Choudhary
p64
sVKph
p65
VKanhaiya Honrao 
p66
sVPIJU
p67
VPrajakta
p68
sVThe Sorcerers
p69
VTeam Sorcerers
p70
sVHemant
p71
VHemant Kumar
p72
sVShaktimaan
p73
VShaktimaan
p74
sVMLYS
p75
VML Yuva Sena
p76
sVML Hunterzz
p77
VML Hunterzz
p78
sVChet
p79
VChetan Madur
p80
sVDanger Danger Creeping Closer 
p81
VJerome
p82
sVcvs257
p83
VSaketh Chitrapu
p84
sVThamit
p85
VAmit Thakur
p86
sVIplchamps
p87
VIPL Champs
p88
sVLogan
p89
VSomesh Bakre
p90
sVRohan
p91
VRohan
p92
sVAnand
p93
VAnand Patil
p94
sVPunyamP
p95
VPunyam Patnaik
p96
sVsachin
p97
VSachin Sharma
p98
sVPuneriBlockChain
p99
VGajanan Lokhande
p100
s.