(dp0
VTanay Mathur
p1
V0x28C8870D00613fA4891786f7b7aBE0A6554fDc16
p2
sVAarti M
p3
V0x82361Ac015A000066C051B1A4f3407C8e946918a
p4
sVipljunky
p5
V0xaDF23BcdF9cb4f04111fB8D8583500644fD5f51c
p6
sVMangesh
p7
V0x044c3f4F5a30249d91384047b70B9Bb99E43B093
p8
sVSarang Chauhan 
p9
V0xd8C3F67F3F62baD979afbF2Bcc8dce3d7F305bC7
p10
sVWillSmith
p11
V0x94Fb1f84f486FA517A07e46cc8977cd37f33F493
p12
sVChacha
p13
V0x2841d0429E7D8a2a2Cfb47f06A4c9E3EfceD01b2
p14
sVsiddharth
p15
V0xcC80f86422D9ee4082d1Dcec7014722c493315f8
p16
sV@Garib_Insaan
p17
V0xaE79A0D2D08c685028F7645eA61015bC108D869e
p18
sVKiran Kumar Pabboji 
p19
V0x75D1E6656B36bB4f4136176BC5e6e0A26BDF5fbF
p20
sVthegodfather
p21
V0x93EA5285074924ce6A1aC16036a7B6DD75F81947
p22
sVHimanshu Hansaria
p23
V0x87F65dE25f8193Df60c7AC39B9e4b8e3431f42CC
p24
sVNeeraj Kumar
p25
V0x92677df12afAC77CF0ac2E1879E81038bd37C22F
p26
sVTanvirs 
p27
V0xdC757B4b5f6E4A6f9110BeF60D6b1dCEFcee1C58
p28
sVAdmin_PP
p29
V0x314Da668b2e2618C7590248C3FE36D695925b2c4
p30
sVVarun samant
p31
V0xBaA31ae408108A615bEBBDD414AA39E0d1634395
p32
sVanurag singh
p33
V0xaC53520Ffe2072398001AE05d7e7C9f850280a70
p34
sVMOHD AQUIB
p35
V0xC8fdB5370311Aa266A4Cd5253Bf3100fdb5Ec873
p36
sVAksS
p37
V0x7B1bd3b475ACA7E38CCa1615a7e631c3D36Be838
p38
sVJyoti singh
p39
V0xa442BADE1Fc599c28C83e0f73Acb51e9DeBAf37F
p40
sVKunalG
p41
V0xD5cC71CB870747A6AB4dEF661D5CCa7bbd1404a3
p42
sVPrashant Gupta
p43
V0xF02739da192006d4F6b089fA839262938d4337ac
p44
sVKunal Maheshwari
p45
V0xAC924217A6e7a09E9B335068B64Fc441819A192c
p46
sVak2605
p47
V0x1F33D43e6D5197Fd63dDC6770C227B34F3602496
p48
sVChaitanya
p49
V0x2e37E44e598A7E34F94C4A6E36160956293812e6
p50
sVDipendra
p51
V0x2cc704077Ef0DfaED6b5C0af65D44558d26B25e1
p52
sVPrasun Pande
p53
V0x4688cDaD56684CAbE81ee6A995656E21Bc6F4c2d
p54
sVSupport2 sb
p55
V0x866C9eCf5d2cbf8D897B2944eEAFAbBceA50A668
p56
sVAtul Sharma
p57
V0x720D0c0F3Fe0803E69832ae12CdF424212D63B42
p58
sVGirish
p59
V0x5D9fD8620B95A51c33868f408Db70D6BC39CFEC7
p60
sVSuvit
p61
V0xa603D25D9C2318BAAB38621BD66227dc142c84BC
p62
sVChetan sharma
p63
V0x46A224e7A96025FE6aF457B18D1D240FdE47258b
p64
sVPranshu Topal
p65
V0xf1bcf80709A8efBBc6134d3055Ae2cB778fA7700
p66
sVRandom7
p67
V0x21b5357d0bF687843aDeEA7e80C6477053c46c17
p68
sVShunya
p69
V0x0C00959b7Fac6af348c471951EfAE148Bc182E70
p70
sVRupeshKirmirwar
p71
V0x77C61D5Df8759cef69DB539f88BD014ab2C10440
p72
sVRamdon007++
p73
V0x0057B9A188Aaf10FB2004D85a883090Db7B11B22
p74
sVVirendrasinh Gohil 
p75
V0x7CE50118BBc4208df6c6127bDe4560e44C04bf59
p76
sVPramod
p77
V0x19FBBD48AF979f2De242E488a84257D29bD15cBF
p78
sVChirag Kankariya
p79
V0x7880C5d71ffb66E27a9898bBA510F53458503C4d
p80
sVRohit Srivastava
p81
V0x09abDeB06799bf6a66121de92e441b2643E6F72E
p82
sVAdityaadiraju
p83
V0xC36098a91A3bD50eC4A4cD94812A84B22BaC3017
p84
sVAdmin_SachinS
p85
V0x4687193d7C4def8A36796795D7Ab865366bC0ED5
p86
sVSagar 
p87
V0x7Ce21fd6242CD7E5Ffc23b2E3cdd9931Bf7f4738
p88
sVMatrix
p89
V0xCDc63E739aCD3b483b3e7cA1A70f794fB86BdAaD
p90
sVXYZ Prediction
p91
V0x7103209f00BDe90DFabbe17b13Ac0836554326b1
p92
sVShubham Thakur
p93
V0x0Ea7DaBBD4CB4557b87AFbC5170047881318049F
p94
sVsachins
p95
V0x9e93197e6f19c5e0654d3243c15e844f6a66d742
p96
sVKAMSY
p97
V0x12883267298A5666e68e1379Fb99DEc591b2C700
p98
sVAnurag
p99
V0x48191c9860d21528b24188b2d0415b3D0145Fc1E
p100
sVAnanta Prasad Kabi
p101
V0xB8Cbc5f706Ca4eFbd0eC52FF6a3e89d7b1DCEcCB
p102
sVSneh Mujoo
p103
V0x7F281966076Fd1404c07C62f96C9983589eEDF4D
p104
sVAlphaGoShunya
p105
V0x51859A271e9ff4D54fC39C17693F1727627F0865
p106
sVProthit Majumdar 
p107
V0x107ab29EF6432b2FF5a22FFC9dBF832305dD2Ce3
p108
sVNiraj Diwan
p109
V0x80d2c90B8C31F6eEEA31adEe76D72B188F96D061
p110
sVShwet Ketu Haritas
p111
V0x20A249c969cE74C8F9A3Fe1B8192fC7428f7CAc6
p112
sVShirish
p113
V0x727A6f38be1A5a532De9c1839BcFBa719F4eA231
p114
sVKrishna Bellary
p115
V0xcfBDd39564799834a8AA02c6A90E2631A432CA66
p116
sVVivek Gorwadkar
p117
V0x698DbF061d643c5d103f4f2E82F7d314777D432f
p118
sVNikhilesh
p119
V0x57d05FED913088194460894Dcc4Cb31F0A5671c0
p120
sVGajanan Lokhande
p121
V0xa6307a8B61C4fA88077E369Ad0e2085731C9c59D
p122
sVArpit saxena
p123
V0x9b4db6D7eB0a4fAdE4cD9b1059A7f3780B7aF9eB
p124
sVLalit Mohnani
p125
V0x01e491E38A14Ebd7E6419F5581762CBEc8260F52
p126
sVKiran
p127
V0x164732a3fcF8b36dAD8C6bfD11918c56b1A54c3b
p128
sVRavi Sharma
p129
V0xd43f53143EE0f169B3Ead8cdA588B0583F13C548
p130
sVPrachi
p131
V0xC6eC9aa1935c31c98273F6366fe7B49511bC5CB9
p132
sVMSK
p133
V0x0b8b6fE573aF299684a0990f90Da330F683A7C61
p134
sVIPLKiAAG
p135
V0x620500fa7efe7FF3a67DD6ffcE73d0f82d19f056
p136
sVAkshata Raikar
p137
V0x377992166266E2DdA97CBd3f46B9952A34aCEce4
p138
sVsanro1
p139
V0x478E12D50970071047814aeEA70a8402968822EA
p140
sVPappu
p141
V0x3eE2Ccd95558dD586489972f9b1Ba06D8eE083b5
p142
sVRailSplitter
p143
V0x20e7DB048A799b34eDE83A8431033AdCF5eF1c6b
p144
sVsuperman
p145
V0x6ba33fD3cC075D71C48597dF69278FFa3597a4F5
p146
sVAvik Chakraborty
p147
V0xF75d468AC8833b6c8AA1B3138C0A79F1F2968f09
p148
sVSorcerers Reloaded
p149
V0x81c08AfCe9c26A8E97acEF91969610d07a03d527
p150
sVGirish 
p151
V
p152
sVRandom7Killer
p153
V0x3C1C5a4Fe2a20B0702426f3580A01F8212b94Ae1
p154
sVBhalchandra Joshi
p155
V0xb01b05b3408070dA647fBB606E4C71B6D123a06d
p156
sVAkshay Sukhija
p157
V0x8917A4FF8F99470B9414E49735E194Fb6884da22
p158
sVKaram
p159
V0xa75A66f0B029979189F75E0D2fa4B51704Fcaf93
p160
sVMohit Gupta
p161
V0x8C5B4d31920435B6d0b9C49893675b920970ff60
p162
sVGame Swingers
p163
V0xb4a0Fb49de160Eb8BE526c0a0bC64363cf9f6CB0
p164
sVPrajwala Srivatsa
p165
V0xA7939BfB7f6eB24400089B4E15fFA41cBAc39E00
p166
sVPratyush
p167
V0xc5B197716f8bC0840D7D7034EF577b643A5Ee436
p168
sVTushar Patil
p169
V0xc5d52c225AF6779994A324126967763Dc9E1c1A3
p170
sVIksha
p171
V0x328A8868f05139bb93e869Cb0F345e1D5B344f58
p172
sVjkgb
p173
V0x7e1Cbee4b0300399BacC1ADeA2D84d4A039f14bc
p174
sVPraveen Shamlal Kithani
p175
V0x575c22123D9845A222f23E988d45A485AaA25ecf
p176
s.