(dp0
Vpsk3005
p1
V0x575c22123D9845A222f23E988d45A485AaA25ecf
p2
sVAladdin
p3
V0xCFa820A77c50883805497988ee02faAA866ed68F
p4
sVrohit499
p5
V0x09abDeB06799bf6a66121de92e441b2643E6F72E
p6
sV@tul
p7
V0xd0b805daD97265c08Fe8A032F5050eC5818eC53a
p8
sVVinayTakawale007
p9
V0x815B67efcbf7217a2A784d2Df2c051184AC10F4A
p10
sVpp
p11
V0x10114bDd7E248054cA7d3ecA3683190314A40F7c
p12
sVKabi.anant
p13
V0xB8Cbc5f706Ca4eFbd0eC52FF6a3e89d7b1DCEcCB
p14
sVPrecision
p15
V0x7880C5d71ffb66E27a9898bBA510F53458503C4d
p16
sVAarti_M
p17
V0x82361Ac015A000066C051B1A4f3407C8e946918a
p18
sVChetan sharma
p19
V0x46A224e7A96025FE6aF457B18D1D240FdE47258b
p20
sVSagar
p21
V0x4890272E8D3E9faB32B9FDe829235A6d16b93E7a
p22
sVPG
p23
V0xF02739da192006d4F6b089fA839262938d4337ac
p24
sVviren
p25
V0x7CE50118BBc4208df6c6127bDe4560e44C04bf59
p26
sVGajanan
p27
V0xa6307a8B61C4fA88077E369Ad0e2085731C9c59D
p28
sVVarun@ResearchIT
p29
V0xBaA31ae408108A615bEBBDD414AA39E0d1634395
p30
sVKishi
p31
V0x4806639B1186EDfb9F3a3656Ed4122F1220509e7
p32
sVthegodfather
p33
V0x93EA5285074924ce6A1aC16036a7B6DD75F81947
p34
sVSupport3
p35
V0x9e93197E6f19c5E0654d3243C15E844f6A66D742
p36
sVSupport2
p37
V0x866C9eCf5d2cbf8D897B2944eEAFAbBceA50A668
p38
sVNikhilesh
p39
V0x57d05FED913088194460894Dcc4Cb31F0A5671c0
p40
sVAdminPP
p41
V0x314Da668b2e2618C7590248C3FE36D695925b2c4
p42
sVUdaykiran
p43
V0x75D1E6656B36bB4f4136176BC5e6e0A26BDF5fbF
p44
sVnitrek1921
p45
V0x620500fa7efe7FF3a67DD6ffcE73d0f82d19f056
p46
s.